(dp1
S'test'
p2
(lp3
F1.6382495164871216
aF1.4216409921646118
aF1.417885422706604
aF1.2289469242095947
aF1.132307767868042
aF1.1109106540679932
aF1.0435483455657959
aF0.98482543230056763
aF0.94858402013778687
aF0.92531806230545044
aF0.90916937589645386
aF0.89670181274414062
aF0.88947099447250366
aF0.88928872346878052
aF0.89478451013565063
aF0.90127080678939819
aF0.90432441234588623
aF0.89434927701950073
aF0.87108117341995239
aF0.83994430303573608
aF0.80778813362121582
aF0.78631091117858887
aF0.78214210271835327
aF0.79298275709152222
aF0.80856847763061523
aF0.81798160076141357
aF0.81142878532409668
aF0.7908286452293396
aF0.76419943571090698
aF0.74254155158996582
aF0.7280619740486145
aF0.71907949447631836
aF0.71521455049514771
aF0.71409863233566284
aF0.71264660358428955
aF0.71043825149536133
aF0.7077144980430603
aF0.70477080345153809
aF0.7014499306678772
aF0.69773072004318237
aF0.69532018899917603
aF0.69386982917785645
aF0.69236135482788086
aF0.6908268928527832
aF0.68989598751068115
aF0.68857991695404053
aF0.68802750110626221
aF0.68704682588577271
aF0.68661218881607056
aF0.68623936176300049
aF0.68581682443618774
aF0.68563616275787354
aF0.68552625179290771
aF0.68565839529037476
aF0.6857905387878418
aF0.68601751327514648
aF0.68589890003204346
aF0.68680316209793091
aF0.68679326772689819
aF0.68749421834945679
aF0.68801611661911011
aF0.6886749267578125
aF0.68944984674453735
aF0.69008642435073853
aF0.69061064720153809
aF0.69159954786300659
aF0.69242578744888306
aF0.69301456212997437
aF0.69388401508331299
aF0.69525045156478882
aF0.69602859020233154
aF0.69707798957824707
aF0.69782376289367676
aF0.69912213087081909
aF0.69971930980682373
aF0.70152384042739868
aF0.70181465148925781
aF0.70370298624038696
aF0.70410066843032837
aF0.70605254173278809
aF0.70647150278091431
aF0.70817428827285767
aF0.7089005708694458
aF0.7104530930519104
aF0.71128618717193604
aF0.71309888362884521
aF0.71380811929702759
aF0.71540993452072144
aF0.71661001443862915
aF0.71748626232147217
aF0.71930456161499023
aF0.71970188617706299
aF0.72156089544296265
aF0.72253364324569702
aF0.72427636384963989
aF0.7249753475189209
aF0.726543128490448
aF0.72776758670806885
aF0.72904175519943237
aF0.73027265071868896
aF0.73103994131088257
aF0.73306924104690552
aF0.73391151428222656
aF0.73544669151306152
aF0.73654395341873169
aF0.7380480170249939
aF0.73919421434402466
aF0.7405051589012146
aF0.74144744873046875
aF0.74306368827819824
aF0.74384015798568726
aF0.74571985006332397
aF0.74654930830001831
aF0.74809837341308594
aF0.74899536371231079
aF0.7505805492401123
aF0.75155860185623169
aF0.75315243005752563
aF0.75400441884994507
aF0.75555253028869629
aF0.75651431083679199
aF0.75805586576461792
aF0.75895333290100098
aF0.7605164647102356
aF0.7613300085067749
aF0.76299130916595459
aF0.76383334398269653
aF0.76540905237197876
aF0.76613730192184448
aF0.76785236597061157
aF0.76874262094497681
aF0.76997601985931396
aF0.7710874080657959
aF0.77274280786514282
aF0.77320367097854614
aF0.77519792318344116
aF0.77592384815216064
aF0.77731770277023315
aF0.77826416492462158
aF0.77952820062637329
aF0.78089004755020142
aF0.78169113397598267
aF0.78332936763763428
aF0.78426998853683472
aF0.78539794683456421
aF0.78634375333786011
aF0.78776657581329346
aF0.7887188196182251
aF0.78998410701751709
aF0.79096221923828125
aF0.79233253002166748
aF0.79345285892486572
aF0.79428774118423462
aF0.79588997364044189
aF0.79651188850402832
aF0.79811733961105347
aF0.79884350299835205
aF0.79997050762176514
aF0.80123245716094971
aF0.80212980508804321
aF0.80340969562530518
aF0.80448693037033081
aF0.80549269914627075
aF0.80662763118743896
aF0.80778175592422485
aF0.80865520238876343
aF0.80980944633483887
aF0.81061339378356934
aF0.81212669610977173
aF0.8128669261932373
aF0.81434333324432373
aF0.81519711017608643
aF0.81608891487121582
aF0.81743133068084717
aF0.81808727979660034
aF0.81939405202865601
aF0.82033193111419678
aF0.82156360149383545
aF0.82224136590957642
aF0.82375413179397583
aF0.82430887222290039
aF0.8256843090057373
aF0.82638204097747803
aF0.82784116268157959
aF0.82844537496566772
aF0.82974708080291748
aF0.8303496241569519
aF0.83174896240234375
aF0.83247619867324829
aF0.83370882272720337
aF0.83453226089477539
aF0.83562016487121582
aF0.83663183450698853
aF0.83756357431411743
aF0.83868306875228882
aF0.83959537744522095
aF0.8406447172164917
aF0.84158796072006226
aF0.84251552820205688
aF0.84352999925613403
aF0.84455615282058716
aF0.84539872407913208
aF0.84637641906738281
aF0.84741318225860596
aF0.84831136465072632
aF0.84923481941223145
aF0.85033190250396729
aF0.85103362798690796
aF0.85230493545532227
aF0.85305666923522949
aF0.85390698909759521
aF0.85500216484069824
aF0.85579288005828857
aF0.85678780078887939
aF0.85790979862213135
aF0.85849118232727051
aF0.85977619886398315
aF0.86049067974090576
aF0.86133205890655518
aF0.86250585317611694
aF0.863139808177948
aF0.86432498693466187
aF0.86512863636016846
aF0.86595332622528076
aF0.86705094575881958
aF0.86777597665786743
aF0.86887747049331665
aF0.86964035034179688
aF0.87054318189620972
aF0.87162041664123535
aF0.87238281965255737
aF0.87322819232940674
aF0.87416011095046997
aF0.87507236003875732
aF0.87598997354507446
aF0.87690424919128418
aF0.87760692834854126
aF0.87860321998596191
aF0.87964844703674316
aF0.88034015893936157
aF0.88129764795303345
aF0.88212066888809204
aF0.88301301002502441
aF0.8837849497795105
aF0.88473588228225708
aF0.8854445219039917
aF0.88656651973724365
aF0.88727009296417236
aF0.88804388046264648
aF0.88917165994644165
aF0.88980495929718018
aF0.89075195789337158
aF0.89159619808197021
aF0.89242339134216309
aF0.89346539974212646
aF0.89416038990020752
aF0.89493101835250854
aF0.89590072631835938
aF0.89651137590408325
aF0.897663414478302
aF0.89828801155090332
aF0.89929097890853882
aF0.90004676580429077
aF0.9008060097694397
aF0.90182805061340332
aF0.90257567167282104
aF0.9033585786819458
aF0.90410339832305908
aF0.90509861707687378
aF0.90588688850402832
aF0.90668404102325439
aF0.90753823518753052
aF0.90824168920516968
aF0.90913963317871094
aF0.90999114513397217
aF0.91063129901885986
aF0.9116780161857605
aF0.91251999139785767
aF0.91313070058822632
aF0.91407978534698486
aF0.91495805978775024
aF0.91565197706222534
aF0.91650146245956421
aF0.91721999645233154
aF0.91810828447341919
aF0.91884297132492065
aF0.91965264081954956
aF0.92033934593200684
aF0.9214785099029541
aF0.92201590538024902
aF0.92298096418380737
aF0.92359435558319092
aF0.92441493272781372
aF0.92511171102523804
aF0.92618918418884277
aF0.92678779363632202
aF0.92745006084442139
aF0.92855191230773926
aF0.92915946245193481
aF0.92989438772201538
aF0.93072736263275146
aF0.93145102262496948
aF0.93221783638000488
aF0.93315941095352173
aF0.93375504016876221
aF0.93476665019989014
aF0.93537521362304688
aF0.9361419677734375
aF0.93694579601287842
aF0.93782997131347656
aF0.93841844797134399
aF0.93928694725036621
aF0.94009596109390259
aF0.94074809551239014
aF0.94169658422470093
aF0.94229233264923096
aF0.94320130348205566
aF0.94381421804428101
aF0.94469082355499268
aF0.94543963670730591
aF0.94606399536132812
aF0.94703906774520874
aF0.94761985540390015
aF0.94837415218353271
aF0.94908928871154785
aF0.95002943277359009
aF0.95076113939285278
aF0.95143699645996094
aF0.95221823453903198
aF0.95287436246871948
aF0.95368796586990356
aF0.95453578233718872
aF0.95510143041610718
aF0.95583343505859375
aF0.95688629150390625
aF0.95741909742355347
aF0.95818942785263062
aF0.9589419960975647
aF0.95954865217208862
aF0.9603496789932251
aF0.96120315790176392
aF0.96176832914352417
aF0.96266454458236694
aF0.96332824230194092
aF0.9641081690788269
aF0.96479117870330811
aF0.96542084217071533
aF0.96631735563278198
aF0.96703773736953735
aF0.96767264604568481
aF0.96864837408065796
aF0.96923094987869263
aF0.96985560655593872
aF0.9707341194152832
aF0.97128784656524658
aF0.97218751907348633
aF0.97284179925918579
aF0.9734041690826416
aF0.97445636987686157
aF0.97495156526565552
aF0.97580069303512573
aF0.97648566961288452
aF0.97724312543869019
aF0.9778093695640564
aF0.97865587472915649
aF0.97931820154190063
aF0.98019492626190186
aF0.98071163892745972
aF0.98148882389068604
aF0.982127845287323
aF0.98303020000457764
aF0.9835057258605957
aF0.9843030571937561
aF0.9851641058921814
aF0.98576271533966064
aF0.9865071177482605
aF0.9872860312461853
aF0.98779881000518799
aF0.98865050077438354
aF0.98940914869308472
aF0.98999243974685669
aF0.99091571569442749
aF0.99140936136245728
aF0.99213409423828125
aF0.99298828840255737
aF0.99352258443832397
aF0.99429154396057129
aF0.99508106708526611
aF0.99562680721282959
aF0.99651956558227539
aF0.99710929393768311
aF0.99783504009246826
aF0.99842756986618042
aF0.99908870458602905
aF0.99994540214538574
aF1.0006617307662964
aF1.0013191699981689
aF1.0020114183425903
aF1.0026677846908569
aF1.0033460855484009
aF1.0040143728256226
aF1.0049096345901489
aF1.0052179098129272
aF1.0062752962112427
aF1.0067824125289917
aF1.0076441764831543
aF1.0082476139068604
aF1.0089621543884277
aF1.0096460580825806
aF1.0103323459625244
aF1.0110297203063965
aF1.011662483215332
aF1.0123753547668457
aF1.013134241104126
aF1.0136282444000244
aF1.0144587755203247
aF1.0150461196899414
aF1.0159326791763306
aF1.0164819955825806
aF1.0172048807144165
aF1.0178223848342896
aF1.0184803009033203
aF1.0192698240280151
aF1.0199095010757446
aF1.0205397605895996
aF1.0213624238967896
aF1.0218102931976318
aF1.0226037502288818
aF1.0234391689300537
aF1.0238939523696899
aF1.0247033834457397
aF1.0253363847732544
aF1.0259639024734497
aF1.0266354084014893
aF1.0274726152420044
aF1.0279333591461182
aF1.0286588668823242
aF1.0294802188873291
aF1.0300571918487549
aF1.0307797193527222
aF1.0313763618469238
aF1.0321222543716431
aF1.0327998399734497
aF1.0333398580551147
aF1.0340702533721924
aF1.0349425077438354
aF1.0353003740310669
aF1.036175012588501
aF1.0367130041122437
aF1.0374311208724976
aF1.0379763841629028
aF1.0389505624771118
aF1.0392493009567261
aF1.0402671098709106
aF1.0407063961029053
aF1.041400671005249
aF1.0421489477157593
aF1.0428547859191895
aF1.0432637929916382
aF1.0441728830337524
aF1.0448744297027588
aF1.0453901290893555
aF1.0459796190261841
aF1.0469447374343872
aF1.0472520589828491
aF1.0481511354446411
aF1.0487579107284546
aF1.049498438835144
aF1.0500578880310059
aF1.0506556034088135
aF1.051433801651001
aF1.052040696144104
aF1.0527768135070801
aF1.0533204078674316
aF1.0541000366210938
aF1.0545107126235962
aF1.0554463863372803
aF1.0558878183364868
aF1.0566350221633911
aF1.0573601722717285
aF1.0580017566680908
aF1.0586155652999878
aF1.0592434406280518
aF1.0598784685134888
aF1.0606459379196167
aF1.0611929893493652
aF1.0618191957473755
aF1.062692403793335
aF1.0631893873214722
aF1.0638433694839478
aF1.0643784999847412
aF1.0653947591781616
aF1.0657562017440796
aF1.0665419101715088
aF1.0670439004898071
aF1.0677374601364136
aF1.0684032440185547
aF1.0690943002700806
aF1.0696994066238403
aF1.070361852645874
aF1.0709517002105713
aF1.0717910528182983
aF1.0722658634185791
aF1.072953462600708
aF1.073614239692688
aF1.0742490291595459
aF1.0749472379684448
aF1.0755635499954224
aF1.07628333568573
aF1.0766888856887817
aF1.0776153802871704
aF1.0779924392700195
aF1.0788042545318604
aF1.0793610811233521
aF1.0799678564071655
aF1.0808405876159668
aF1.0812699794769287
aF1.0820063352584839
aF1.0825999975204468
aF1.0833925008773804
aF1.0839232206344604
aF1.084644079208374
aF1.0852773189544678
aF1.0857599973678589
aF1.0865099430084229
aF1.0870578289031982
aF1.0878077745437622
aF1.0884355306625366
aF1.0890085697174072
aF1.0897650718688965
aF1.0903338193893433
aF1.0910189151763916
aF1.0916447639465332
aF1.0921889543533325
aF1.0930123329162598
aF1.0933839082717896
aF1.0941882133483887
aF1.0949643850326538
aF1.0954656600952148
aF1.0961614847183228
aF1.0966348648071289
aF1.0973629951477051
aF1.0980619192123413
aF1.0987191200256348
aF1.0993154048919678
aF1.0999237298965454
aF1.1005105972290039
aF1.1011016368865967
aF1.101946234703064
aF1.1024351119995117
aF1.1031903028488159
aF1.1037188768386841
aF1.1044721603393555
aF1.10500168800354
aF1.1054990291595459
aF1.106282114982605
aF1.1068673133850098
aF1.1075239181518555
aF1.1082025766372681
aF1.1087892055511475
aF1.1094841957092285
aF1.1100534200668335
aF1.1107200384140015
aF1.1114288568496704
aF1.1119815111160278
aF1.1125944852828979
aF1.1131101846694946
aF1.1139605045318604
aF1.1144038438796997
aF1.1152540445327759
aF1.1156690120697021
aF1.1165112257003784
aF1.1168917417526245
aF1.1176480054855347
aF1.1183806657791138
aF1.1188665628433228
aF1.119442343711853
aF1.1202653646469116
aF1.1207789182662964
aF1.1214686632156372
aF1.1219983100891113
aF1.1225763559341431
aF1.1233689785003662
aF1.1238710880279541
aF1.1245936155319214
aF1.125255823135376
aF1.1257386207580566
aF1.1264204978942871
aF1.1271518468856812
aF1.1276016235351562
aF1.1282750368118286
aF1.128941535949707
aF1.1295642852783203
aF1.1301548480987549
aF1.1307179927825928
aF1.1315010786056519
aF1.1320607662200928
aF1.1327652931213379
aF1.1333361864089966
aF1.1338375806808472
aF1.134672999382019
aF1.1351408958435059
aF1.1357462406158447
aF1.1364866495132446
aF1.1370701789855957
aF1.1377327442169189
aF1.1383092403411865
aF1.1390010118484497
aF1.1396347284317017
aF1.1401052474975586
aF1.1408175230026245
aF1.1414668560028076
aF1.1419548988342285
aF1.1427032947540283
aF1.1432492733001709
aF1.1438131332397461
aF1.1446706056594849
aF1.1451002359390259
aF1.145790696144104
aF1.1464308500289917
aF1.1469048261642456
aF1.1477744579315186
aF1.1481610536575317
aF1.1488476991653442
aF1.1494956016540527
aF1.1501448154449463
aF1.1507059335708618
aF1.151374340057373
aF1.1519489288330078
aF1.1526322364807129
aF1.1533153057098389
aF1.1538660526275635
aF1.1543871164321899
aF1.1550631523132324
aF1.1557701826095581
aF1.1562188863754272
aF1.1569358110427856
aF1.1575800180435181
aF1.1582626104354858
aF1.1587026119232178
aF1.1593595743179321
aF1.1600861549377441
aF1.1605437994003296
aF1.1612919569015503
aF1.1618179082870483
aF1.1625033617019653
aF1.1631277799606323
aF1.1637606620788574
aF1.1643624305725098
aF1.1649872064590454
aF1.1655997037887573
aF1.1662206649780273
aF1.1667724847793579
aF1.1675035953521729
aF1.1680254936218262
aF1.1686674356460571
aF1.1692976951599121
aF1.1698782444000244
aF1.1704126596450806
aF1.1711885929107666
aF1.171654224395752
aF1.1722817420959473
aF1.1730259656906128
aF1.173617959022522
aF1.1742364168167114
aF1.1748297214508057
aF1.1753854751586914
aF1.1760407686233521
aF1.176520824432373
aF1.1773582696914673
aF1.1777539253234863
aF1.1785184144973755
aF1.1790468692779541
aF1.1796530485153198
aF1.1803830862045288
aF1.1809625625610352
aF1.1815325021743774
aF1.1821597814559937
aF1.1828333139419556
aF1.1833105087280273
aF1.1839128732681274
aF1.1847397089004517
aF1.1850796937942505
aF1.1858857870101929
aF1.1864464282989502
aF1.1870582103729248
aF1.1877490282058716
aF1.1882658004760742
aF1.1889243125915527
aF1.189454197883606
aF1.1900037527084351
aF1.1907598972320557
aF1.1912270784378052
aF1.1919463872909546
aF1.1925927400588989
aF1.1931103467941284
aF1.1938334703445435
aF1.1943854093551636
aF1.1951658725738525
aF1.1956954002380371
aF1.1962475776672363
aF1.1969180107116699
aF1.1973638534545898
aF1.1982786655426025
aF1.1985220909118652
aF1.1993308067321777
aF1.1999121904373169
aF1.200518012046814
aF1.201238751411438
aF1.2016594409942627
aF1.2021774053573608
aF1.2030329704284668
aF1.203520655632019
aF1.2040044069290161
aF1.2049028873443604
aF1.20537269115448
aF1.2058457136154175
aF1.2065627574920654
aF1.2072144746780396
aF1.207667350769043
aF1.2085006237030029
aF1.208910346031189
aF1.2094677686691284
aF1.2102547883987427
aF1.2108705043792725
aF1.2114201784133911
aF1.2120081186294556
aF1.2127140760421753
aF1.2132362127304077
aF1.2138314247131348
aF1.2144111394882202
aF1.2150673866271973
aF1.2156230211257935
aF1.2163325548171997
aF1.2168023586273193
aF1.2175092697143555
aF1.2180672883987427
aF1.2186883687973022
aF1.2193489074707031
aF1.2199050188064575
aF1.2205296754837036
aF1.2210168838500977
aF1.221616268157959
aF1.2223418951034546
aF1.2229868173599243
aF1.2236112356185913
aF1.2241060733795166
aF1.2247821092605591
aF1.2253278493881226
aF1.225896954536438
aF1.2265852689743042
aF1.2270996570587158
aF1.2277870178222656
aF1.2282290458679199
aF1.2291111946105957
aF1.2294877767562866
aF1.2300912141799927
aF1.230756402015686
aF1.2314870357513428
aF1.2318906784057617
aF1.2326887845993042
aF1.2331283092498779
aF1.2338614463806152
aF1.2343835830688477
aF1.2350865602493286
aF1.2356420755386353
aF1.2362889051437378
aF1.2368083000183105
aF1.2374786138534546
aF1.2379655838012695
aF1.2385393381118774
aF1.2392245531082153
aF1.2398284673690796
aF1.2404416799545288
aF1.2410300970077515
aF1.2416856288909912
aF1.2422581911087036
aF1.2428460121154785
aF1.2433915138244629
aF1.2439367771148682
aF1.2447057962417603
aF1.2452578544616699
aF1.2457519769668579
aF1.246434211730957
aF1.2469757795333862
aF1.2475991249084473
aF1.2482130527496338
aF1.2488425970077515
aF1.2494440078735352
aF1.2499762773513794
aF1.2506811618804932
aF1.2510615587234497
aF1.2519147396087646
aF1.2523432970046997
aF1.2529267072677612
aF1.2536178827285767
aF1.2542874813079834
aF1.2548303604125977
aF1.2554425001144409
aF1.2560393810272217
aF1.256655216217041
aF1.2571660280227661
aF1.2578974962234497
aF1.2584288120269775
aF1.259020209312439
aF1.2597030401229858
aF1.2601943016052246
aF1.2609400749206543
aF1.2614041566848755
aF1.262014627456665
aF1.2626185417175293
aF1.2632637023925781
aF1.2637914419174194
aF1.2643414735794067
aF1.2651100158691406
aF1.2655196189880371
aF1.2663437128067017
aF1.2667678594589233
aF1.267498254776001
aF1.267905592918396
aF1.268545389175415
aF1.2693097591400146
aF1.2697379589080811
aF1.2703405618667603
aF1.2710983753204346
aF1.2714598178863525
aF1.2722102403640747
aF1.272951602935791
aF1.2732489109039307
aF1.2738915681838989
aF1.2746819257736206
aF1.2751448154449463
aF1.275849461555481
aF1.2763619422912598
aF1.2769508361816406
aF1.2774556875228882
aF1.2782069444656372
aF1.278637170791626
aF1.2794678211212158
aF1.2799423933029175
aF1.28056800365448
aF1.2811360359191895
aF1.2817933559417725
aF1.2822878360748291
aF1.2829718589782715
aF1.283574104309082
aF1.2840464115142822
aF1.2848376035690308
aF1.2852866649627686
aF1.2858713865280151
aF1.286638617515564
aF1.2870277166366577
aF1.2876768112182617
aF1.288395881652832
aF1.2888822555541992
aF1.2895208597183228
aF1.2902162075042725
aF1.2907164096832275
aF1.2913658618927002
aF1.291955828666687
aF1.2924760580062866
aF1.2929898500442505
aF1.2936780452728271
aF1.2943869829177856
aF1.2949084043502808
aF1.295362114906311
aF1.2962255477905273
aF1.2965996265411377
aF1.2974557876586914
aF1.2978063821792603
aF1.2985520362854004
aF1.2990316152572632
aF1.2996512651443481
aF1.3004403114318848
aF1.3008049726486206
aF1.3014922142028809
aF1.3020135164260864
aF1.3026562929153442
aF1.303399920463562
aF1.3039560317993164
aF1.3044916391372681
aF1.3051111698150635
aF1.3055655956268311
aF1.3062456846237183
aF1.3068966865539551
aF1.3074610233306885
aF1.3081839084625244
aF1.3085633516311646
aF1.3091164827346802
aF1.3097944259643555
aF1.3104002475738525
aF1.3108978271484375
aF1.311728835105896
aF1.3122742176055908
aF1.3129003047943115
aF1.3132658004760742
aF1.3141305446624756
aF1.3145842552185059
aF1.3153036832809448
aF1.3158698081970215
aF1.3163330554962158
aF1.3168760538101196
aF1.3177088499069214
aF1.3182169198989868
aF1.3188652992248535
aF1.319429874420166
aF1.3199859857559204
aF1.3204176425933838
aF1.321245551109314
aF1.3218263387680054
aF1.3224056959152222
aF1.3230422735214233
aF1.3234425783157349
aF1.3241615295410156
aF1.3247876167297363
aF1.3254430294036865
aF1.3258967399597168
aF1.3266229629516602
aF1.3269532918930054
aF1.3277205228805542
aF1.3282557725906372
aF1.3288702964782715
aF1.3294781446456909
aF1.3301917314529419
aF1.3306330442428589
aF1.331246018409729
aF1.3318530321121216
aF1.3323196172714233
aF1.3329516649246216
aF1.3337336778640747
aF1.3342176675796509
aF1.334755539894104
aF1.3355138301849365
aF1.3360120058059692
aF1.3365273475646973
aF1.3369766473770142
aF1.3378605842590332
aF1.3382502794265747
aF1.338977575302124
aF1.3393487930297852
aF1.3399603366851807
aF1.3407506942749023
aF1.3412764072418213
aF1.3419053554534912
aF1.3422561883926392
aF1.3430536985397339
aF1.3436968326568604
aF1.344145655632019
aF1.3446745872497559
aF1.3455119132995605
aF1.3460146188735962
aF1.3464125394821167
aF1.3472329378128052
aF1.3477712869644165
aF1.3483022451400757
aF1.3490455150604248
aF1.3494710922241211
aF1.35014808177948
aF1.3506945371627808
aF1.3513214588165283
aF1.3519421815872192
aF1.3525118827819824
aF1.3530652523040771
aF1.3537611961364746
aF1.3542513847351074
aF1.3548413515090942
aF1.355384349822998
aF1.3560144901275635
aF1.3566464185714722
aF1.357264518737793
aF1.35772705078125
aF1.3584914207458496
aF1.3588446378707886
aF1.3595575094223022
aF1.3600693941116333
aF1.3607001304626465
aF1.3612942695617676
aF1.3618159294128418
aF1.362557053565979
aF1.3631746768951416
aF1.3637334108352661
aF1.3644020557403564
aF1.3648747205734253
aF1.3655211925506592
aF1.3659287691116333
aF1.3667941093444824
aF1.3672608137130737
aF1.3678736686706543
aF1.3685173988342285
aF1.3689417839050293
aF1.3696795701980591
aF1.3702031373977661
aF1.3708415031433105
aF1.3712669610977173
aF1.3720537424087524
aF1.3725495338439941
aF1.3732162714004517
aF1.373735785484314
aF1.3742731809616089
aF1.3750032186508179
aF1.3754339218139648
aF1.3760384321212769
aF1.3768587112426758
aF1.3772135972976685
aF1.3779053688049316
aF1.3785246610641479
aF1.3791018724441528
aF1.3797160387039185
aF1.3802437782287598
aF1.3809465169906616
aF1.3814170360565186
aF1.3822008371353149
aF1.3826448917388916
aF1.3832125663757324
aF1.3839309215545654
aF1.3843275308609009
aF1.3849974870681763
aF1.3855493068695068
aF1.3859988451004028
aF1.3867018222808838
aF1.3872904777526855
aF1.3879199028015137
aF1.3885713815689087
aF1.3890557289123535
aF1.3897483348846436
aF1.3901712894439697
aF1.3907949924468994
aF1.3914790153503418
aF1.3920328617095947
aF1.3926576375961304
aF1.3931145668029785
aF1.3937410116195679
aF1.3943763971328735
aF1.3949339389801025
aF1.3954825401306152
aF1.3961426019668579
aF1.3968348503112793
aF1.3972687721252441
aF1.3978849649429321
aF1.3984873294830322
aF1.3992582559585571
aF1.3996353149414062
aF1.4003328084945679
aF1.4008034467697144
aF1.401308536529541
aF1.4022091627120972
aF1.4026502370834351
aF1.4032614231109619
aF1.4037308692932129
aF1.4044053554534912
aF1.405011773109436
aF1.4054704904556274
aF1.4061187505722046
aF1.4067683219909668
aF1.4072463512420654
aF1.4077774286270142
aF1.4085156917572021
aF1.4090245962142944
aF1.4098532199859619
aF1.4104437828063965
aF1.4108861684799194
aF1.4116042852401733
aF1.412175178527832
aF1.4127142429351807
aF1.4132871627807617
aF1.413941502571106
aF1.4144514799118042
aF1.4151066541671753
aF1.4157742261886597
aF1.4161890745162964
aF1.4167962074279785
aF1.4172807931900024
aF1.4178403615951538
aF1.4185880422592163
aF1.4191856384277344
aF1.4196306467056274
aF1.4202756881713867
aF1.4210058450698853
aF1.4213247299194336
aF1.4221479892730713
aF1.4226821660995483
aF1.4232732057571411
aF1.4237627983093262
aF1.4243289232254028
aF1.4249467849731445
aF1.4257056713104248
aF1.4261507987976074
aF1.4266411066055298
aF1.4274047613143921
aF1.4277719259262085
aF1.4284201860427856
aF1.4289660453796387
aF1.4296097755432129
aF1.4300427436828613
aF1.4305065870285034
aF1.4313077926635742
aF1.4317739009857178
aF1.4326059818267822
aF1.4328564405441284
aF1.4334549903869629
aF1.4340628385543823
aF1.4344774484634399
aF1.4350845813751221
aF1.435901403427124
aF1.4362051486968994
aF1.4370473623275757
aF1.4376230239868164
aF1.4381130933761597
aF1.4388916492462158
aF1.4391638040542603
aF1.4400391578674316
aF1.4406638145446777
aF1.4409931898117065
aF1.4417731761932373
aF1.4423162937164307
aF1.4429788589477539
aF1.4434494972229004
aF1.4440851211547852
aF1.4444972276687622
aF1.4452056884765625
aF1.4457321166992188
aF1.4463448524475098
aF1.4468109607696533
aF1.4474847316741943
aF1.4480792284011841
aF1.4486862421035767
aF1.4491132497787476
aF1.4499436616897583
aF1.4504350423812866
aF1.4509948492050171
aF1.4516505002975464
aF1.4523419141769409
aF1.4526925086975098
aF1.453447699546814
aF1.4539827108383179
aF1.4546412229537964
aF1.4550513029098511
aF1.4558316469192505
aF1.45622718334198
aF1.4569464921951294
aF1.4574470520019531
aF1.4580973386764526
aF1.4586517810821533
aF1.4593378305435181
aF1.4598016738891602
aF1.4605145454406738
aF1.4610182046890259
aF1.4616414308547974
aF1.4622762203216553
aF1.4627840518951416
aF1.4634569883346558
aF1.4639936685562134
aF1.4645935297012329
aF1.4651541709899902
aF1.4656157493591309
aF1.4663126468658447
aF1.4668399095535278
aF1.4674292802810669
aF1.4678796529769897
aF1.4684847593307495
aF1.4691058397293091
aF1.4695581197738647
aF1.4702353477478027
aF1.470955491065979
aF1.4714952707290649
aF1.4721331596374512
aF1.4724810123443604
aF1.473279595375061
aF1.4736945629119873
aF1.4742611646652222
aF1.4749231338500977
aF1.4754011631011963
aF1.475981593132019
aF1.4765121936798096
aF1.4771429300308228
aF1.4778397083282471
aF1.4784164428710938
aF1.4788194894790649
aF1.4794856309890747
aF1.4800941944122314
aF1.4807003736495972
aF1.4812116622924805
aF1.4819610118865967
aF1.4822441339492798
aF1.4830466508865356
aF1.4834179878234863
aF1.4839684963226318
aF1.4845131635665894
aF1.4851542711257935
aF1.4856659173965454
aF1.4862556457519531
aF1.4869275093078613
aF1.4874840974807739
aF1.4879645109176636
aF1.4883850812911987
aF1.4890861511230469
aF1.4896036386489868
aF1.4899923801422119
aF1.4905989170074463
aF1.49092698097229
aF1.4915711879730225
aF1.4923369884490967
aF1.4927873611450195
aF1.4933527708053589
aF1.4938902854919434
aF1.4943784475326538
aF1.4950482845306396
aF1.4956597089767456
aF1.4961861371994019
aF1.4968171119689941
aF1.4974366426467896
aF1.4979181289672852
aF1.4986922740936279
aF1.4991830587387085
aF1.4999725818634033
aF1.5004867315292358
aF1.5012185573577881
aF1.5014710426330566
aF1.5020499229431152
aF1.5029581785202026
aF1.5030741691589355
aF1.5036780834197998
aF1.5041948556900024
aF1.5049279928207397
aF1.5054895877838135
aF1.5061522722244263
aF1.5067306756973267
aF1.507138729095459
aF1.5078966617584229
aF1.5084748268127441
aF1.5089200735092163
aF1.5094714164733887
aF1.5099287033081055
aF1.5105036497116089
aF1.5108054876327515
aF1.511492133140564
aF1.5118757486343384
aF1.5123978853225708
aF1.5129251480102539
aF1.5135581493377686
aF1.5140120983123779
aF1.5146536827087402
aF1.5151238441467285
aF1.5157493352890015
aF1.5162118673324585
aF1.5168050527572632
aF1.5175032615661621
aF1.517730712890625
aF1.5186613798141479
aF1.5189638137817383
aF1.5196411609649658
aF1.5199131965637207
aF1.5206469297409058
aF1.5210962295532227
aF1.5215996503829956
aF1.5223144292831421
aF1.5227057933807373
aF1.5231863260269165
aF1.5236977338790894
aF1.5242998600006104
aF1.5247491598129272
aF1.525550365447998
aF1.5261421203613281
aF1.526589035987854
aF1.5272766351699829
aF1.527747631072998
aF1.5282399654388428
aF1.5287575721740723
aF1.529543399810791
aF1.5297479629516602
aF1.5305435657501221
aF1.530884861946106
aF1.5316227674484253
aF1.5321245193481445
aF1.5325957536697388
aF1.5333633422851562
aF1.5339518785476685
aF1.534512996673584
aF1.5353449583053589
aF1.5355829000473022
aF1.5362235307693481
aF1.5370615720748901
aF1.5373016595840454
aF1.5378553867340088
aF1.5386711359024048
aF1.5389938354492188
aF1.5398375988006592
aF1.5403457880020142
aF1.5408089160919189
aF1.5416519641876221
aF1.5419678688049316
aF1.5426892042160034
aF1.5430221557617188
aF1.5436341762542725
aF1.5442361831665039
aF1.5447790622711182
aF1.5452812910079956
aF1.5457673072814941
aF1.546404242515564
aF1.5469590425491333
aF1.547681450843811
aF1.5484060049057007
aF1.5491436719894409
aF1.5496947765350342
aF1.5503339767456055
aF1.5506711006164551
aF1.5511453151702881
aF1.551720142364502
aF1.5523684024810791
aF1.5527833700180054
aF1.5539258718490601
aF1.554171085357666
aF1.5550023317337036
aF1.5554895401000977
aF1.556124210357666
aF1.5567322969436646
aF1.5573828220367432
aF1.557976245880127
aF1.5585005283355713
aF1.5588678121566772
aF1.5593329668045044
aF1.5600951910018921
aF1.560704231262207
aF1.5610784292221069
aF1.5617133378982544
aF1.5624043941497803
aF1.5629502534866333
aF1.5635507106781006
aF1.5639632940292358
aF1.5646903514862061
aF1.5649653673171997
aF1.5657378435134888
aF1.5662194490432739
aF1.5668016672134399
aF1.5673614740371704
aF1.5679075717926025
aF1.5686293840408325
aF1.5690543651580811
aF1.5698133707046509
aF1.5700939893722534
aF1.5708274841308594
aF1.5710921287536621
aF1.5717484951019287
aF1.5721893310546875
aF1.5731291770935059
aF1.5734822750091553
aF1.5743346214294434
aF1.5747479200363159
aF1.5753599405288696
aF1.5757870674133301
aF1.5763901472091675
aF1.5768312215805054
aF1.5777384042739868
aF1.5783677101135254
aF1.5787472724914551
aF1.5795559883117676
aF1.5798491239547729
aF1.5806900262832642
aF1.5807631015777588
aF1.5812822580337524
aF1.5820244550704956
aF1.5821903944015503
aF1.5829704999923706
aF1.5835112333297729
aF1.5838760137557983
aF1.5843826532363892
aF1.5847798585891724
aF1.5852689743041992
aF1.5859488248825073
aF1.5862663984298706
aF1.5868299007415771
aF1.5873403549194336
aF1.5880452394485474
aF1.5884933471679688
aF1.589052677154541
aF1.5897023677825928
aF1.5899484157562256
aF1.590263843536377
aF1.5908299684524536
aF1.5911458730697632
aF1.5916404724121094
aF1.5922319889068604
aF1.5926152467727661
aF1.5929545164108276
aF1.5934149026870728
aF1.5939450263977051
aF1.594399094581604
aF1.5951789617538452
aF1.5953015089035034
aF1.5957804918289185
aF1.5961238145828247
aF1.5965443849563599
aF1.5970718860626221
aF1.5971509218215942
aF1.59746253490448
aF1.5980595350265503
aF1.5983321666717529
aF1.5989151000976562
aF1.5993658304214478
aF1.5998151302337646
aF1.5998841524124146
aF1.6006057262420654
aF1.6008412837982178
aF1.6011457443237305
aF1.6015012264251709
aF1.601875901222229
aF1.6022816896438599
aF1.602953314781189
aF1.6034142971038818
aF1.6035436391830444
aF1.6045641899108887
aF1.6048399209976196
aF1.6055512428283691
aF1.6060341596603394
aF1.6068205833435059
aF1.6072250604629517
aF1.6079145669937134
aF1.6085044145584106
aF1.6089332103729248
aF1.609835147857666
aF1.6100046634674072
aF1.6107442378997803
aF1.6109619140625
aF1.6117509603500366
aF1.6121118068695068
aF1.6128023862838745
aF1.6130856275558472
aF1.6137082576751709
aF1.6140944957733154
aF1.6141980886459351
aF1.6146339178085327
aF1.6152650117874146
aF1.6155428886413574
aF1.616216778755188
aF1.6163375377655029
aF1.6166239976882935
aF1.6172791719436646
aF1.617466926574707
aF1.6181329488754272
aF1.618527889251709
aF1.6187871694564819
aF1.6192330121994019
aF1.6196808815002441
aF1.6201097965240479
aF1.6206748485565186
aF1.6208826303482056
aF1.6213834285736084
aF1.6218094825744629
aF1.6221795082092285
aF1.622626781463623
aF1.622997522354126
aF1.6236114501953125
aF1.6238424777984619
aF1.6244964599609375
aF1.6245911121368408
aF1.6250940561294556
aF1.6254724264144897
aF1.6260068416595459
aF1.6263525485992432
aF1.6268529891967773
aF1.627185583114624
aF1.6278266906738281
aF1.6282826662063599
aF1.6289414167404175
aF1.6297452449798584
aF1.6302024126052856
aF1.6309289932250977
aF1.6318963766098022
aF1.6323450803756714
aF1.6330579519271851
aF1.6337062120437622
aF1.6346025466918945
aF1.6350151300430298
aF1.6353592872619629
aF1.6359591484069824
aF1.6366177797317505
aF1.6373223066329956
aF1.6376733779907227
aF1.6383527517318726
aF1.6383624076843262
aF1.6389977931976318
aF1.6394162178039551
aF1.6401634216308594
aF1.6403025388717651
aF1.6408722400665283
aF1.6413811445236206
aF1.6419154405593872
aF1.6430695056915283
aF1.6431550979614258
aF1.6445319652557373
aF1.6443709135055542
aF1.6460831165313721
aF1.645866870880127
aF1.6471766233444214
aF1.6470496654510498
aF1.6476118564605713
aF1.6480728387832642
aF1.6484767198562622
aF1.6489043235778809
aF1.6494890451431274
aF1.6500364542007446
aF1.6505248546600342
aF1.6513757705688477
aF1.6521691083908081
aF1.6527328491210938
aF1.6533302068710327
aF1.6542813777923584
aF1.6548159122467041
aF1.6555144786834717
aF1.6555639505386353
aF1.6566914319992065
aF1.6568664312362671
aF1.6575934886932373
aF1.6578522920608521
aF1.6587930917739868
aF1.658631443977356
aF1.6594761610031128
aF1.659709095954895
aF1.660240650177002
aF1.6603691577911377
aF1.6608039140701294
aF1.6612586975097656
aF1.6613787412643433
aF1.6620470285415649
aF1.6625673770904541
aF1.6627660989761353
aF1.6632875204086304
aF1.6635706424713135
aF1.6639472246170044
aF1.6641777753829956
aF1.6644793748855591
aF1.6647399663925171
aF1.6651549339294434
aF1.6658154726028442
aF1.6660146713256836
aF1.6665688753128052
aF1.6668769121170044
aF1.6669967174530029
aF1.6674706935882568
aF1.6677368879318237
aF1.6680160760879517
aF1.6684392690658569
aF1.6689085960388184
aF1.6689950227737427
aF1.6694546937942505
aF1.6702524423599243
aF1.6702406406402588
aF1.6706621646881104
aF1.6709024906158447
aF1.6709158420562744
aF1.6713722944259644
aF1.6718239784240723
aF1.672149658203125
aF1.6726151704788208
aF1.6730453968048096
aF1.6735682487487793
aF1.6738319396972656
aF1.6743828058242798
aF1.6748816967010498
aF1.6751666069030762
aF1.6758186817169189
aF1.6760185956954956
aF1.6768769025802612
aF1.6771918535232544
aF1.677821159362793
aF1.6783837080001831
aF1.6789571046829224
aF1.6793439388275146
aF1.6798357963562012
aF1.6801432371139526
aF1.6804777383804321
aF1.6810097694396973
aF1.6814680099487305
aF1.6816434860229492
aF1.6819384098052979
aF1.6818701028823853
aF1.6820646524429321
aF1.6828140020370483
aF1.6831395626068115
aF1.683594822883606
aF1.6841593980789185
aF1.6845123767852783
aF1.685033917427063
aF1.6853948831558228
aF1.6860150098800659
aF1.6862002611160278
aF1.6869169473648071
aF1.6873489618301392
aF1.6875127553939819
aF1.6877938508987427
aF1.6886862516403198
aF1.6889874935150146
aF1.6893653869628906
aF1.68963623046875
aF1.6896622180938721
aF1.6901016235351562
aF1.6907248497009277
aF1.6913275718688965
aF1.691461443901062
aF1.6921875476837158
aF1.6922943592071533
aF1.6929293870925903
aF1.6931633949279785
aF1.6933125257492065
aF1.6940559148788452
aF1.6943368911743164
aF1.6943603754043579
aF1.6946431398391724
aF1.6954314708709717
aF1.6953264474868774
aF1.6959208250045776
aF1.6955835819244385
aF1.6964266300201416
aF1.6967822313308716
aF1.6965751647949219
aF1.6968835592269897
aF1.6975234746932983
aF1.6979341506958008
aF1.6982047557830811
aF1.6986175775527954
aF1.6991615295410156
aF1.6995872259140015
aF1.7001012563705444
aF1.7004733085632324
aF1.7010742425918579
aF1.7014777660369873
aF1.7018887996673584
aF1.7023149728775024
aF1.7027769088745117
aF1.7031023502349854
aF1.7038223743438721
aF1.7042146921157837
aF1.7045098543167114
aF1.7051368951797485
aF1.7055939435958862
aF1.7062439918518066
aF1.7069562673568726
aF1.7077313661575317
aF1.7082831859588623
aF1.7087559700012207
aF1.7092857360839844
aF1.7097600698471069
aF1.7102342844009399
aF1.7101430892944336
aF1.7105687856674194
aF1.7109124660491943
aF1.7110413312911987
aF1.7112576961517334
aF1.7118135690689087
aF1.7118252515792847
aF1.7129545211791992
aF1.7127188444137573
aF1.7140923738479614
aF1.7137417793273926
aF1.7147783041000366
aF1.7146326303482056
aF1.7154055833816528
aF1.7156643867492676
aF1.7164403200149536
aF1.7165881395339966
aF1.7173200845718384
aF1.71770179271698
aF1.7180773019790649
aF1.7185424566268921
aF1.7191439867019653
aF1.7197554111480713
aF1.719586968421936
aF1.7206881046295166
aF1.7207881212234497
aF1.7215920686721802
aF1.7218530178070068
aF1.7227416038513184
aF1.7230360507965088
aF1.7238402366638184
aF1.724560022354126
aF1.7253562211990356
aF1.7257142066955566
aF1.7267659902572632
aF1.7273074388504028
aF1.7283682823181152
aF1.7286450862884521
aF1.7295956611633301
aF1.7298113107681274
aF1.7308320999145508
aF1.7307683229446411
aF1.7315336465835571
aF1.7316427230834961
aF1.7323359251022339
aF1.7327443361282349
aF1.7332327365875244
aF1.7340974807739258
aF1.7344337701797485
aF1.7348583936691284
aF1.7351685762405396
aF1.7353066205978394
aF1.7361375093460083
aF1.7369529008865356
aF1.7373710870742798
aF1.737916111946106
aF1.7381991147994995
aF1.7390226125717163
aF1.7392959594726562
aF1.7401262521743774
aF1.7400640249252319
aF1.7406119108200073
aF1.7413296699523926
aF1.7419508695602417
aF1.7426027059555054
aF1.7432487010955811
aF1.7432541847229004
aF1.7433791160583496
aF1.7440739870071411
aF1.7448744773864746
aF1.7451192140579224
aF1.745705246925354
aF1.7464699745178223
aF1.7466038465499878
aF1.7476149797439575
aF1.7475194931030273
aF1.7477332353591919
aF1.7471077442169189
aF1.7489393949508667
aF1.7495002746582031
aF1.749268651008606
aF1.7497388124465942
aF1.7498468160629272
aF1.7498831748962402
aF1.7509218454360962
aF1.7494931221008301
aF1.7509689331054688
aF1.751429557800293
aF1.7512391805648804
aF1.7509636878967285
aF1.7515287399291992
aF1.7510749101638794
aF1.7515288591384888
aF1.7526084184646606
aF1.7518994808197021
aF1.7532666921615601
aF1.7525342702865601
aF1.7512246370315552
aF1.7521349191665649
aF1.7519164085388184
aF1.7525849342346191
aF1.7508931159973145
aF1.7516189813613892
aF1.7519820928573608
aF1.7512609958648682
aF1.7497396469116211
aF1.7505258321762085
aF1.7504113912582397
aF1.7509886026382446
aF1.7510542869567871
aF1.7499117851257324
aF1.7494157552719116
aF1.7492188215255737
aF1.7473752498626709
aF1.7482137680053711
aF1.747173547744751
aF1.7460922002792358
aF1.7468864917755127
aF1.7422513961791992
aF1.7424309253692627
aF1.7397407293319702
aF1.7392593622207642
aF1.7392424345016479
aF1.7339097261428833
aF1.7350625991821289
aF1.7352663278579712
aF1.7287478446960449
aF1.7273526191711426
aF1.7244130373001099
aF1.7238396406173706
aF1.7203313112258911
aF1.7198387384414673
aF1.7193903923034668
aF1.7118668556213379
aF1.7056615352630615
aF1.7050912380218506
aF1.6957632303237915
aF1.6953186988830566
aF1.6886856555938721
aF1.6871747970581055
aF1.6853146553039551
aF1.6751700639724731
aF1.6788171529769897
aF1.6677025556564331
aF1.6632059812545776
aF1.6683584451675415
aF1.6571221351623535
aF1.662689208984375
aF1.6418840885162354
aF1.6573008298873901
aF1.6462010145187378
aF1.672193169593811
aF1.6716820001602173
aF1.6765668392181396
aF1.6847884654998779
aF1.7771140336990356
aF2.4710800647735596
aF6.3328309059143066
aF4.145057201385498
aF4.25201416015625
aF3.4582548141479492
aF2.55584716796875
aF2.8825182914733887
aF2.4171419143676758
aF2.3356869220733643
aF2.3050675392150879
aF2.2824153900146484
aF2.2634661197662354
aF2.2488799095153809
aF2.2378549575805664
aF2.2293057441711426
aF2.2224104404449463
aF2.2166392803192139
aF2.2116680145263672
aF2.2072956562042236
aF2.2033803462982178
aF2.1998462677001953
aF2.1966161727905273
aF2.193645715713501
aF2.1908948421478271
aF2.1883342266082764
aF2.1859402656555176
aF2.1836919784545898
aF2.181572437286377
aF2.179570198059082
aF2.1776745319366455
aF2.1758713722229004
aF2.1741526126861572
aF2.1725115776062012
aF2.1709425449371338
aF2.1694378852844238
aF2.1679952144622803
aF2.1666088104248047
aF2.1652791500091553
aF2.1639938354492188
aF2.1627562046051025
aF2.1615638732910156
aF2.1604113578796387
aF2.1593022346496582
aF2.1582300662994385
aF2.1571907997131348
aF2.1561839580535889
aF2.1552059650421143
aF2.1542558670043945
aF2.1533300876617432
aF2.152428150177002
aF2.1515493392944336
aF2.1506938934326172
aF2.1498570442199707
aF2.1490440368652344
aF2.1482493877410889
aF2.1474709510803223
aF2.1467101573944092
aF2.1459627151489258
aF2.1452341079711914
aF2.1445217132568359
aF2.1438217163085938
aF2.1431355476379395
aF2.1424627304077148
aF2.1418094635009766
aF2.1411688327789307
aF2.140545129776001
aF2.1399326324462891
aF2.1393330097198486
aF2.1387453079223633
aF2.1381685733795166
aF2.1376035213470459
aF2.1370494365692139
aF2.1365056037902832
aF2.1359684467315674
aF2.1354403495788574
aF2.1349225044250488
aF2.1344199180603027
aF2.1339263916015625
aF2.1334424018859863
aF2.1329629421234131
aF2.1324911117553711
aF2.1320269107818604
aF2.1315701007843018
aF2.1311178207397461
aF2.1306753158569336
aF2.1302416324615479
aF2.1298151016235352
aF2.1293947696685791
aF2.1289820671081543
aF2.1285750865936279
aF2.1281771659851074
aF2.1277883052825928
aF2.1274063587188721
aF2.127030611038208
aF2.1266617774963379
aF2.1262948513031006
aF2.1259329319000244
aF2.1255772113800049
aF2.1252291202545166
aF2.1248867511749268
aF2.124549388885498
aF2.1242184638977051
aF2.1238892078399658
aF2.1235628128051758
aF2.1232390403747559
aF2.1229183673858643
aF2.1226034164428711
aF2.1222929954528809
aF2.1219851970672607
aF2.1216838359832764
aF2.1213879585266113
aF2.1210925579071045
aF2.1207990646362305
aF2.1205089092254639
aF2.120225191116333
aF2.1199431419372559
aF2.1196672916412354
aF2.1193933486938477
aF2.1191291809082031
aF2.1188678741455078
aF2.1186137199401855
aF2.118363618850708
aF2.1181166172027588
aF2.1178698539733887
aF2.1176257133483887
aF2.1173849105834961
aF2.1171481609344482
aF2.1169149875640869
aF2.1166853904724121
aF2.1164584159851074
aF2.1162333488464355
aF2.1160116195678711
aF2.1157922744750977
aF2.1155745983123779
aF2.1153628826141357
aF2.1151530742645264
aF2.1149466037750244
aF2.1147401332855225
aF2.1145343780517578
aF2.1143331527709961
aF2.1141357421875
aF2.1139416694641113
aF2.1137533187866211
aF2.1135680675506592
aF2.1133875846862793
aF2.113208532333374
aF2.113032341003418
aF2.1128561496734619
aF2.1126832962036133
aF2.1125133037567139
aF2.1123418807983398
aF2.112175464630127
aF2.1120121479034424
aF2.1118519306182861
aF2.1116936206817627
aF2.1115362644195557
aF2.1113803386688232
aF2.1112253665924072
aF2.1110703945159912
aF2.110917329788208
aF2.110764741897583
aF2.1106135845184326
aF2.1104593276977539
aF2.1103129386901855
aF2.110170841217041
aF2.1100308895111084
aF2.1098966598510742
aF2.1097667217254639
aF2.1096389293670654
aF2.1095123291015625
aF2.1093859672546387
aF2.1092619895935059
aF2.1091368198394775
aF2.1090152263641357
aF2.1088945865631104
aF2.1087779998779297
aF2.1086626052856445
aF2.1085481643676758
aF2.1084346771240234
aF2.1083219051361084
aF2.1082131862640381
aF2.1081066131591797
aF2.1080033779144287
aF2.1079015731811523
aF2.1077995300292969
aF2.1077005863189697
aF2.1075999736785889
aF2.1075010299682617
aF2.1074020862579346
aF2.107304573059082
aF2.1072049140930176
aF2.1071040630340576
aF2.1070041656494141
aF2.1069080829620361
aF2.1068124771118164
aF2.1067183017730713
aF2.1066267490386963
aF2.1065335273742676
aF2.1064434051513672
aF2.1063582897186279
aF2.1062741279602051
aF2.106191873550415
aF2.1061103343963623
aF2.1060290336608887
aF2.1059482097625732
aF2.1058666706085205
aF2.1057848930358887
aF2.1057078838348389
aF2.10563063621521
aF2.1055545806884766
aF2.1054806709289551
aF2.1054079532623291
aF2.1053347587585449
aF2.10526442527771
aF2.1051926612854004
aF2.1051223278045654
aF2.1050510406494141
aF2.1049809455871582
aF2.1049129962921143
aF2.1048438549041748
aF2.1047763824462891
aF2.1047084331512451
aF2.1046404838562012
aF2.1045739650726318
aF2.104508638381958
aF2.1044445037841797
aF2.1043834686279297
aF2.1043248176574707
aF2.1042675971984863
aF2.1042110919952393
aF2.1041531562805176
aF2.1040966510772705
aF2.1040403842926025
aF2.1039867401123047
aF2.1039330959320068
aF2.103879451751709
aF2.1038265228271484
aF2.1037721633911133
aF2.1037206649780273
aF2.1036689281463623
aF2.103618860244751
aF2.1035709381103516
aF2.103522777557373
aF2.1034746170043945
aF2.1034255027770996
aF2.1033780574798584
aF2.1033306121826172
aF2.1032817363739014
aF2.1032307147979736
aF2.1031770706176758
aF2.1031243801116943
aF2.1030724048614502
aF2.1030204296112061
aF2.1029684543609619
aF2.1029176712036133
aF2.1028659343719482
aF2.1028151512145996
aF2.1027648448944092
aF2.1027131080627441
aF2.1026625633239746
aF2.1026113033294678
aF2.1025617122650146
aF2.102513313293457
aF2.1024656295776367
aF2.102421760559082
aF2.102381706237793
aF2.1023428440093994
aF2.1023068428039551
aF2.102269172668457
aF2.1022322177886963
aF2.1021950244903564
aF2.1021580696105957
aF2.1021201610565186
aF2.1020827293395996
aF2.1020445823669434
aF2.1020071506500244
aF2.1019690036773682
aF2.1019322872161865
aF2.1018946170806885
aF2.1018564701080322
aF2.1018202304840088
aF2.1017873287200928
aF2.1017537117004395
aF2.1017208099365234
aF2.1016881465911865
aF2.1016559600830078
aF2.1016223430633545
aF2.1015894412994385
aF2.101555347442627
aF2.101520299911499
aF2.1014854907989502
aF2.1014528274536133
aF2.1014213562011719
aF2.1013903617858887
aF2.1013631820678711
aF2.1013357639312744
aF2.1013104915618896
aF2.101287841796875
aF2.1012654304504395
aF2.1012446880340576
aF2.1012217998504639
aF2.1011998653411865
aF2.1011769771575928
aF2.1011545658111572
aF2.1011307239532471
aF2.1011075973510742
aF2.1010839939117432
aF2.101060152053833
aF2.1010375022888184
aF2.1010160446166992
aF2.1009900569915771
aF2.1009635925292969
aF2.1009311676025391
aF2.1008987426757812
aF2.1008734703063965
aF2.1008508205413818
aF2.1008284091949463
aF2.1008059978485107
aF2.1007833480834961
aF2.100759744644165
aF2.1007366180419922
aF2.1007139682769775
aF2.1006922721862793
aF2.1006734371185303
aF2.1006529331207275
aF2.1006309986114502
aF2.1006078720092773
aF2.1005849838256836
aF2.1005582809448242
aF2.1005263328552246
aF2.1004903316497803
aF2.1004502773284912
aF2.1004111766815186
aF2.1003701686859131
aF2.1003298759460449
aF2.100287914276123
aF2.1002471446990967
aF2.1002061367034912
aF2.1001636981964111
aF2.1001226902008057
aF2.1000821590423584
aF2.1000401973724365
aF2.0999982357025146
aF2.0999562740325928
aF2.0999116897583008
aF2.0998644828796387
aF2.0998163223266602
aF2.0997676849365234
aF2.0997273921966553
aF2.0996975898742676
aF2.0996720790863037
aF2.0996479988098145
aF2.099625825881958
aF2.0996026992797852
aF2.099578857421875
aF2.0995552539825439
aF2.0995304584503174
aF2.0995099544525146
aF2.0994884967803955
aF2.0994675159454346
aF2.0994462966918945
aF2.0994336605072021
aF2.0994248390197754
aF2.099414587020874
aF2.0994002819061279
aF2.0993876457214355
aF2.0993719100952148
aF2.0993578433990479
aF2.0993421077728271
aF2.0993258953094482
aF2.099308967590332
aF2.0992932319641113
aF2.0992751121520996
aF2.0992579460144043
aF2.0992395877838135
aF2.0992207527160645
aF2.0992019176483154
aF2.0991811752319336
aF2.0991597175598145
aF2.0991334915161133
aF2.0991048812866211
aF2.0990757942199707
aF2.0990433692932129
aF2.0990080833435059
aF2.0989713668823242
aF2.0989346504211426
aF2.098895788192749
aF2.0988597869873047
aF2.0988221168518066
aF2.0987834930419922
aF2.0987441539764404
aF2.0986993312835693
aF2.0986542701721191
aF2.0986113548278809
aF2.0985722541809082
aF2.0985307693481445
aF2.0984869003295898
aF2.0984406471252441
aF2.0983953475952148
aF2.0983495712280273
aF2.0983035564422607
aF2.0982575416564941
aF2.0982112884521484
aF2.0981655120849609
aF2.0981206893920898
aF2.098078727722168
aF2.0980448722839355
aF2.0980112552642822
aF2.0979783535003662
aF2.0979444980621338
aF2.0979108810424805
aF2.0978767871856689
aF2.0978426933288574
aF2.0978055000305176
aF2.097764253616333
aF2.0977222919464111
aF2.0976800918579102
aF2.0976362228393555
aF2.0975921154022217
aF2.0975468158721924
aF2.0974991321563721
aF2.0974457263946533
aF2.0973942279815674
aF2.0973405838012695
aF2.0972869396209717
aF2.0972323417663574
aF2.0971775054931641
aF2.0971083641052246
aF2.0970382690429688
aF2.0969657897949219
aF2.0968945026397705
aF2.09682297706604
aF2.0967488288879395
aF2.0966715812683105
aF2.0966017246246338
aF2.0965344905853271
aF2.0964694023132324
aF2.0964035987854004
aF2.096336841583252
aF2.0962719917297363
aF2.0962066650390625
aF2.0961399078369141
aF2.0960795879364014
aF2.0960202217102051
aF2.0959615707397461
aF2.095902681350708
aF2.095841646194458
aF2.0957813262939453
aF2.0957186222076416
aF2.0956549644470215
aF2.0955898761749268
aF2.0955252647399902
aF2.0954549312591553
aF2.0953810214996338
aF2.0953092575073242
aF2.0952432155609131
aF2.095179557800293
aF2.0951173305511475
aF2.0950605869293213
aF2.0950112342834473
aF2.0949575901031494
aF2.094900369644165
aF2.0948429107666016
aF2.0947859287261963
aF2.0947275161743164
aF2.0946676731109619
aF2.0946075916290283
aF2.0945398807525635
aF2.0944747924804688
aF2.0944089889526367
aF2.0943365097045898
aF2.0942585468292236
aF2.0941767692565918
aF2.0940937995910645
aF2.0940043926239014
aF2.0939106941223145
aF2.093815803527832
aF2.0937209129333496
aF2.0936267375946045
aF2.0935332775115967
aF2.0934374332427979
aF2.0933389663696289
aF2.0932388305664062
aF2.093137264251709
aF2.0930359363555908
aF2.0929358005523682
aF2.0928361415863037
aF2.0927355289459229
aF2.092634916305542
aF2.0925347805023193
aF2.0924358367919922
aF2.0923357009887695
aF2.0922365188598633
aF2.0921354293823242
aF2.0920352935791016
aF2.0919358730316162
aF2.0918357372283936
aF2.09173583984375
aF2.0916428565979004
aF2.0915660858154297
aF2.0915043354034424
aF2.0914413928985596
aF2.0913822650909424
aF2.0913212299346924
aF2.091259241104126
aF2.0911898612976074
aF2.0911147594451904
aF2.0910348892211914
aF2.0909554958343506
aF2.09088134765625
aF2.0908174514770508
aF2.0907561779022217
aF2.0906949043273926
aF2.0906326770782471
aF2.0905687808990479
aF2.0905044078826904
aF2.0904386043548584
aF2.0903761386871338
aF2.0903127193450928
aF2.0902490615844727
aF2.0901968479156494
aF2.0901546478271484
aF2.0901148319244385
aF2.0900752544403076
aF2.0900325775146484
aF2.0899896621704102
aF2.0899455547332764
aF2.0898988246917725
aF2.0898513793945312
aF2.0898020267486572
aF2.0897502899169922
aF2.089695930480957
aF2.0896401405334473
aF2.0895953178405762
aF2.089555025100708
aF2.0895159244537354
aF2.0894758701324463
aF2.0894336700439453
aF2.0893900394439697
aF2.0893449783325195
aF2.0892975330352783
aF2.0892488956451416
aF2.089198112487793
aF2.089146614074707
aF2.0891025066375732
aF2.0890533924102783
aF2.0890023708343506
aF2.0889565944671631
aF2.0889191627502441
aF2.0888807773590088
aF2.0888371467590332
aF2.0887699127197266
aF2.0886943340301514
aF2.0886297225952148
aF2.088566780090332
aF2.0885021686553955
aF2.0884356498718262
aF2.088369607925415
aF2.0883009433746338
aF2.0882320404052734
aF2.0881609916687012
aF2.0880892276763916
aF2.0880157947540283
aF2.0879421234130859
aF2.0878651142120361
aF2.0877904891967773
aF2.087716817855835
aF2.0876429080963135
aF2.0875582695007324
aF2.0874650478363037
aF2.0873672962188721
aF2.0872676372528076
aF2.0871782302856445
aF2.0871012210845947
aF2.0870165824890137
aF2.0869274139404297
aF2.0868368148803711
aF2.0867457389831543
aF2.0866520404815674
aF2.0865592956542969
aF2.0864665508270264
aF2.0863726139068604
aF2.0862689018249512
aF2.0861539840698242
aF2.0860331058502197
aF2.0859236717224121
aF2.0858213901519775
aF2.0857198238372803
aF2.0856351852416992
aF2.0855638980865479
aF2.0855019092559814
aF2.085439920425415
aF2.0853631496429443
aF2.085303783416748
aF2.085258960723877
aF2.0852160453796387
aF2.085172176361084
aF2.0850741863250732
aF2.0849590301513672
aF2.0848360061645508
aF2.0847635269165039
aF2.0846519470214844
aF2.0845446586608887
aF2.0844316482543945
aF2.084362268447876
aF2.084259033203125
aF2.0841259956359863
aF2.0839910507202148
aF2.0838329792022705
aF2.0837001800537109
aF2.0835933685302734
aF2.0834691524505615
aF2.0833415985107422
aF2.083198070526123
aF2.0830466747283936
aF2.0828931331634521
aF2.0827395915985107
aF2.0825865268707275
aF2.0824344158172607
aF2.0822687149047852
aF2.082099437713623
aF2.0819292068481445
aF2.081770658493042
aF2.081587553024292
aF2.0813989639282227
aF2.0812094211578369
aF2.0810365676879883
aF2.0808818340301514
aF2.080735445022583
aF2.0805938243865967
aF2.080453634262085
aF2.0803148746490479
aF2.080188512802124
aF2.080073356628418
aF2.0799624919891357
aF2.0798525810241699
aF2.0797429084777832
aF2.0796308517456055
aF2.0795390605926514
aF2.0794587135314941
aF2.079380989074707
aF2.0793018341064453
aF2.0792233943939209
aF2.0791583061218262
aF2.0791065692901611
aF2.0790562629699707
aF2.0790064334869385
aF2.0789515972137451
aF2.078895092010498
aF2.0788359642028809
aF2.0787746906280518
aF2.0786960124969482
aF2.0786113739013672
aF2.0785245895385742
aF2.0784370899200439
aF2.0783417224884033
aF2.0782370567321777
aF2.0781357288360596
aF2.0780291557312012
aF2.0779283046722412
aF2.0778193473815918
aF2.0777215957641602
aF2.0776212215423584
aF2.0775136947631836
aF2.0774099826812744
aF2.0772991180419922
aF2.0771896839141846
aF2.0770633220672607
aF2.0769293308258057
aF2.0767948627471924
aF2.0766611099243164
aF2.076528787612915
aF2.0763959884643555
aF2.0762639045715332
aF2.0761330127716064
aF2.0760347843170166
aF2.0759515762329102
aF2.0758700370788574
aF2.0757732391357422
aF2.0756633281707764
aF2.075549840927124
aF2.0754354000091553
aF2.0753207206726074
aF2.0752050876617432
aF2.0750899314880371
aF2.0749754905700684
aF2.0748608112335205
aF2.0747463703155518
aF2.0746328830718994
aF2.0745179653167725
aF2.0744032859802246
aF2.0742883682250977
aF2.0741734504699707
aF2.0740644931793213
aF2.0739648342132568
aF2.0738718509674072
aF2.07379150390625
aF2.0737321376800537
aF2.0736913681030273
aF2.0736446380615234
aF2.073573112487793
aF2.0734889507293701
aF2.0733990669250488
aF2.0733067989349365
aF2.0732100009918213
aF2.0731120109558105
aF2.0730099678039551
aF2.0729074478149414
aF2.0728085041046143
aF2.0727097988128662
aF2.0726096630096436
aF2.072490930557251
aF2.0723636150360107
aF2.0722544193267822
aF2.0721538066864014
aF2.0720524787902832
aF2.0719316005706787
aF2.0717968940734863
aF2.0716593265533447
aF2.0715162754058838
aF2.0713748931884766
aF2.0712344646453857
aF2.0710926055908203
aF2.0709497928619385
aF2.0708062648773193
aF2.0706639289855957
aF2.070521354675293
aF2.0703747272491455
aF2.0702288150787354
aF2.0700826644897461
aF2.0699379444122314
aF2.0697939395904541
aF2.0696456432342529
aF2.0694990158081055
aF2.0693507194519043
aF2.0692031383514404
aF2.0690550804138184
aF2.0689079761505127
aF2.0687601566314697
aF2.0686092376708984
aF2.0684609413146973
aF2.0683116912841797
aF2.068162202835083
aF2.068011999130249
aF2.0678622722625732
aF2.0677120685577393
aF2.0675840377807617
aF2.0674469470977783
aF2.0672729015350342
aF2.0671215057373047
aF2.0669877529144287
aF2.0668261051177979
aF2.0667245388031006
aF2.0665972232818604
aF2.0664417743682861
aF2.0662341117858887
aF2.0660083293914795
aF2.0657749176025391
aF2.0655419826507568
aF2.0653476715087891
aF2.0651795864105225
aF2.0650393962860107
aF2.0649142265319824
aF2.064767599105835
aF2.0646054744720459
aF2.0644605159759521
aF2.0643055438995361
aF2.0641598701477051
aF2.0639996528625488
aF2.0638601779937744
aF2.0637226104736328
aF2.0635735988616943
aF2.0634462833404541
aF2.0633056163787842
aF2.0631511211395264
aF2.062943696975708
aF2.0627462863922119
aF2.06258225440979
aF2.0624208450317383
aF2.0622119903564453
aF2.0619955062866211
aF2.0618002414703369
aF2.0616505146026611
aF2.0614733695983887
aF2.0612528324127197
aF2.0610036849975586
aF2.0607888698577881
aF2.0605916976928711
aF2.0603394508361816
aF2.060100793838501
aF2.0598893165588379
aF2.0596725940704346
aF2.0594463348388672
aF2.0592155456542969
aF2.0589344501495361
aF2.0586740970611572
aF2.0584070682525635
aF2.0581436157226562
aF2.0578820705413818
aF2.0576224327087402
aF2.0573673248291016
aF2.0571198463439941
aF2.0568835735321045
aF2.0566592216491699
aF2.0564236640930176
aF2.0561635494232178
aF2.0558912754058838
aF2.0556700229644775
aF2.0554990768432617
aF2.0553357601165771
aF2.0551760196685791
aF2.0550291538238525
aF2.0548841953277588
aF2.0547027587890625
aF2.0545012950897217
aF2.0542666912078857
aF2.0539846420288086
aF2.0537619590759277
aF2.0535135269165039
aF2.0532412528991699
aF2.0530240535736084
aF2.0528035163879395
aF2.0525708198547363
aF2.052452564239502
aF2.0522613525390625
aF2.0520367622375488
aF2.0518825054168701
aF2.0518414974212646
aF2.0516786575317383
aF2.0514295101165771
aF2.0511922836303711
aF2.0510299205780029
aF2.0508930683135986
aF2.0506219863891602
aF2.0504155158996582
aF2.0502095222473145
aF2.0499703884124756
aF2.0499680042266846
aF2.0498208999633789
aF2.0495893955230713
aF2.0493619441986084
aF2.0491526126861572
aF2.048936128616333
aF2.0487339496612549
aF2.0484685897827148
aF2.0481839179992676
aF2.0479860305786133
aF2.0478065013885498
aF2.0475916862487793
aF2.0473043918609619
aF2.0470106601715088
aF2.0467989444732666
aF2.0465831756591797
aF2.0463511943817139
aF2.0460660457611084
aF2.0457954406738281
aF2.0455541610717773
aF2.0452096462249756
aF2.0449068546295166
aF2.0446608066558838
aF2.0443177223205566
aF2.0440118312835693
aF2.043745756149292
aF2.0435376167297363
aF2.0432827472686768
aF2.0429580211639404
aF2.0426523685455322
aF2.042428731918335
aF2.042252779006958
aF2.042003870010376
aF2.0417423248291016
aF2.0415158271789551
aF2.0412397384643555
aF2.0409731864929199
aF2.0407938957214355
aF2.040623664855957
aF2.0405035018920898
aF2.040424108505249
aF2.0402541160583496
aF2.0400357246398926
aF2.0397930145263672
aF2.0395474433898926
aF2.0392899513244629
aF2.0391333103179932
aF2.0390079021453857
aF2.0389821529388428
aF2.0389635562896729
aF2.0388460159301758
aF2.0386872291564941
aF2.0385913848876953
aF2.0385074615478516
aF2.0384190082550049
aF2.038273811340332
aF2.0381224155426025
aF2.0379974842071533
aF2.0378742218017578
aF2.0377449989318848
aF2.0376071929931641
aF2.0374007225036621
aF2.0371522903442383
aF2.036890983581543
aF2.0366957187652588
aF2.0366330146789551
aF2.0364415645599365
aF2.0362117290496826
aF2.0360357761383057
aF2.0359296798706055
aF2.0357191562652588
aF2.0354712009429932
aF2.0353169441223145
aF2.0351881980895996
aF2.0349600315093994
aF2.0346994400024414
aF2.0345127582550049
aF2.0343739986419678
aF2.0341415405273438
aF2.0338799953460693
aF2.0336143970489502
aF2.0334563255310059
aF2.0332217216491699
aF2.0329649448394775
aF2.0328109264373779
aF2.0325779914855957
aF2.0323224067687988
aF2.0320591926574707
aF2.0317990779876709
aF2.0316500663757324
aF2.0314240455627441
aF2.03116774559021
aF2.0309062004089355
aF2.0306453704833984
aF2.0305020809173584
aF2.0303101539611816
aF2.0301792621612549
aF2.0299825668334961
aF2.0298426151275635
aF2.0296292304992676
aF2.0294773578643799
aF2.0293774604797363
aF2.0291581153869629
aF2.0289888381958008
aF2.0288701057434082
aF2.0286328792572021
aF2.0284433364868164
aF2.0283098220825195
aF2.0281844139099121
aF2.0280542373657227
aF2.0277848243713379
aF2.0275678634643555
aF2.0274026393890381
aF2.0272557735443115
aF2.0271050930023193
aF2.0269489288330078
aF2.0267863273620605
aF2.026618480682373
aF2.0264418125152588
aF2.0262644290924072
aF2.0260801315307617
aF2.0258936882019043
aF2.0257022380828857
aF2.0255091190338135
aF2.0253100395202637
aF2.0251123905181885
aF2.0249142646789551
aF2.0247132778167725
aF2.0245091915130615
aF2.0243086814880371
aF2.0241048336029053
aF2.0239002704620361
aF2.0236952304840088
aF2.023491382598877
aF2.0232894420623779
aF2.0230894088745117
aF2.0228872299194336
aF2.022681713104248
aF2.0224759578704834
aF2.0222747325897217
aF2.0221917629241943
aF2.0220630168914795
aF2.0218627452850342
aF2.0216419696807861
aF2.0215330123901367
aF2.0213842391967773
aF2.0211637020111084
aF2.0210440158843994
aF2.0208814144134521
aF2.0207629203796387
aF2.0205576419830322
aF2.0203237533569336
aF2.0200803279876709
aF2.019791841506958
aF2.0194776058197021
aF2.0190744400024414
aF2.0188732147216797
aF2.0185129642486572
aF2.0180857181549072
aF2.017735481262207
aF2.017448902130127
aF2.0173482894897461
aF2.0172622203826904
aF2.0170028209686279
aF2.016789436340332
aF2.0168488025665283
aF2.0166070461273193
aF2.0163717269897461
aF2.0163159370422363
aF2.0160458087921143
aF2.0158541202545166
aF2.015709400177002
aF2.015451192855835
aF2.0154659748077393
aF2.0152451992034912
aF2.015150785446167
aF2.0148205757141113
aF2.0145959854125977
aF2.0145306587219238
aF2.014298677444458
aF2.0141615867614746
aF2.0138859748840332
aF2.0135869979858398
aF2.0134789943695068
aF2.013242244720459
aF2.0127944946289062
aF2.0126068592071533
aF2.0123324394226074
aF2.0121209621429443
aF2.0118086338043213
aF2.0112299919128418
aF2.0107026100158691
aF2.0102336406707764
aF2.0096797943115234
aF2.0092856884002686
aF2.0088694095611572
aF2.0083568096160889
aF2.0081150531768799
aF2.0076565742492676
aF2.0071122646331787
aF2.006878137588501
aF2.006432056427002
aF2.005906343460083
aF2.0056898593902588
aF2.0052578449249268
aF2.0047435760498047
aF2.0045435428619385
aF2.0041217803955078
aF2.003612756729126
aF2.0034244060516357
aF2.0030074119567871
aF2.002497673034668
aF2.0021054744720459
aF2.0018632411956787
aF2.0014114379882812
aF2.0010404586791992
aF2.0005929470062256
aF2.0003161430358887
aF1.9999985694885254
aF1.9995620250701904
aF1.9990684986114502
aF1.9989242553710938
aF1.9985421895980835
aF1.9980621337890625
aF1.997698187828064
aF1.997261643409729
aF1.9970148801803589
aF1.9967234134674072
aF1.9962995052337646
aF1.9958819150924683
aF1.995635986328125
aF1.995317816734314
aF1.9950171709060669
aF1.9948546886444092
aF1.9943746328353882
aF1.9939558506011963
aF1.99375319480896
aF1.9933340549468994
aF1.9927763938903809
aF1.99249267578125
aF1.9920684099197388
aF1.9916707277297974
aF1.9914811849594116
aF1.9909430742263794
aF1.9901738166809082
aF1.9898689985275269
aF1.9894742965698242
aF1.9890550374984741
aF1.9887847900390625
aF1.9882379770278931
aF1.9876518249511719
aF1.9873085021972656
aF1.9869096279144287
aF1.9864715337753296
aF1.986053466796875
aF1.9857140779495239
aF1.985230565071106
aF1.9850053787231445
aF1.9844561815261841
aF1.9840579032897949
aF1.983619213104248
aF1.9833617210388184
aF1.9829187393188477
aF1.9826644659042358
aF1.9821197986602783
aF1.9817941188812256
aF1.9813681840896606
aF1.9810510873794556
aF1.9806112051010132
aF1.980315089225769
aF1.9797475337982178
aF1.9793633222579956
aF1.979103684425354
aF1.9787232875823975
aF1.9780920743942261
aF1.9780586957931519
aF1.9777262210845947
aF1.9772542715072632
aF1.9771124124526978
aF1.9765138626098633
aF1.976078987121582
aF1.9757906198501587
aF1.9752960205078125
aF1.9748749732971191
aF1.9743257761001587
aF1.9742192029953003
aF1.973967432975769
aF1.9734257459640503
aF1.972978949546814
aF1.9726256132125854
aF1.9720721244812012
aF1.9718949794769287
aF1.9714477062225342
aF1.970860481262207
aF1.9707297086715698
aF1.97049880027771
aF1.9701409339904785
aF1.9695971012115479
aF1.9693710803985596
aF1.968846321105957
aF1.9681806564331055
aF1.9679421186447144
aF1.9676538705825806
aF1.9671139717102051
aF1.9664527177810669
aF1.9665484428405762
aF1.9663197994232178
aF1.9657423496246338
aF1.9652471542358398
aF1.9650733470916748
aF1.964556097984314
aF1.9640601873397827
aF1.9636602401733398
aF1.9632655382156372
aF1.9628534317016602
aF1.962224006652832
aF1.961721658706665
aF1.9613507986068726
aF1.9612314701080322
aF1.96071457862854
aF1.9601985216140747
aF1.9597755670547485
aF1.959135890007019
aF1.9588569402694702
aF1.958561897277832
aF1.9579321146011353
aF1.9574084281921387
aF1.9570152759552002
aF1.9566293954849243
aF1.9562078714370728
aF1.9558018445968628
aF1.9551383256912231
aF1.9546113014221191
aF1.9542227983474731
aF1.9538477659225464
aF1.9534363746643066
aF1.9527757167816162
aF1.9522536993026733
aF1.951873779296875
aF1.9512587785720825
aF1.9510337114334106
aF1.9504958391189575
aF1.9499994516372681
aF1.9496146440505981
aF1.9492411613464355
aF1.9485784769058228
aF1.9480506181716919
aF1.9482285976409912
aF1.9479951858520508
aF1.9475077390670776
aF1.9469670057296753
aF1.9464247226715088
aF1.9461249113082886
aF1.9457321166992188
aF1.9454464912414551
aF1.9450129270553589
aF1.9443703889846802
aF1.9440722465515137
aF1.9439018964767456
aF1.9434143304824829
aF1.9427882432937622
aF1.9424248933792114
aF1.9422872066497803
aF1.9417780637741089
asS'train'
p4
(lp5
F1.602374792098999
aF1.3512303829193115
aF1.3146053552627563
aF1.0821144580841064
aF0.94573891162872314
aF0.88489913940429688
aF0.79894012212753296
aF0.73137396574020386
aF0.68507587909698486
aF0.64661020040512085
aF0.61775237321853638
aF0.5934898853302002
aF0.57617193460464478
aF0.56544917821884155
aF0.55912327766418457
aF0.55248528718948364
aF0.54029899835586548
aF0.51521188020706177
aF0.47723814845085144
aF0.43238192796707153
aF0.38705819845199585
aF0.35200634598731995
aF0.33197745680809021
aF0.3248559832572937
aF0.32345935702323914
aF0.3200995922088623
aF0.30811116099357605
aF0.28791752457618713
aF0.26464754343032837
aF0.24463485181331635
aF0.22968649864196777
aF0.21803028881549835
aF0.20836378633975983
aF0.1999279111623764
aF0.19212326407432556
aF0.18472404778003693
aF0.17746692895889282
aF0.17018091678619385
aF0.16323335468769073
aF0.15647664666175842
aF0.15018872916698456
aF0.14431887865066528
aF0.1387743353843689
aF0.13342483341693878
aF0.12837333977222443
aF0.12353219836950302
aF0.11896098405122757
aF0.11452488601207733
aF0.11033321917057037
aF0.10640362650156021
aF0.10255333781242371
aF0.098910152912139893
aF0.095427274703979492
aF0.092090792953968048
aF0.088930413126945496
aF0.085899136960506439
aF0.082956381142139435
aF0.080216646194458008
aF0.077563300728797913
aF0.074987545609474182
aF0.072572618722915649
aF0.070242874324321747
aF0.067976333200931549
aF0.065847709774971008
aF0.063770771026611328
aF0.061800319701433182
aF0.059915646910667419
aF0.058065678924322128
aF0.056345079094171524
aF0.054675009101629257
aF0.053035065531730652
aF0.051489975303411484
aF0.050002306699752808
aF0.048575717955827713
aF0.047181341797113419
aF0.045868389308452606
aF0.044569261372089386
aF0.04335557296872139
aF0.04216461256146431
aF0.041037309914827347
aF0.039922516793012619
aF0.038870438933372498
aF0.037848852574825287
aF0.036862727254629135
aF0.035907275974750519
aF0.035001978278160095
aF0.034116350114345551
aF0.033263519406318665
aF0.032432898879051208
aF0.031635008752346039
aF0.0308709517121315
aF0.030110668390989304
aF0.029395332559943199
aF0.028703909367322922
aF0.028030939400196075
aF0.027369415387511253
aF0.026744658127427101
aF0.026137037202715874
aF0.025540484115481377
aF0.024969728663563728
aF0.024410577490925789
aF0.023873308673501015
aF0.023349648341536522
aF0.022845115512609482
aF0.022353498265147209
aF0.021879853680729866
aF0.021414734423160553
aF0.020966263487935066
aF0.02052668109536171
aF0.020107079297304153
aF0.01969219371676445
aF0.019297720864415169
aF0.018905138596892357
aF0.018530959263443947
aF0.018159540370106697
aF0.017805611714720726
aF0.017455875873565674
aF0.017117796465754509
aF0.01679367758333683
aF0.016468239948153496
aF0.016158623620867729
aF0.015855211764574051
aF0.015557918697595596
aF0.015272793360054493
aF0.014987064525485039
aF0.01471937820315361
aF0.014447136782109737
aF0.014192104339599609
aF0.013934813439846039
aF0.013689217157661915
aF0.013447776436805725
aF0.013212149031460285
aF0.012983652763068676
aF0.012759556993842125
aF0.012540505267679691
aF0.012327356263995171
aF0.012119201011955738
aF0.011915850453078747
aF0.011714497581124306
aF0.011520109139382839
aF0.011332415975630283
aF0.011144625023007393
aF0.010965627618134022
aF0.010787945240736008
aF0.010612817481160164
aF0.010442757979035378
aF0.01027712132781744
aF0.010115315206348896
aF0.0099549014121294022
aF0.0098018469288945198
aF0.0096480650827288628
aF0.0095011163502931595
aF0.0093542924150824547
aF0.0092127453535795212
aF0.0090702436864376068
aF0.0089355595409870148
aF0.0088008949533104897
aF0.0086690066382288933
aF0.0085422592237591743
aF0.0084145925939083099
aF0.008291284553706646
aF0.0081713767722249031
aF0.008051837794482708
aF0.0079361889511346817
aF0.0078221242874860764
aF0.0077092912979424
aF0.0076001198031008244
aF0.0074926642701029778
aF0.0073868208564817905
aF0.0072833364829421043
aF0.0071827671490609646
aF0.0070832939818501472
aF0.0069855782203376293
aF0.0068898708559572697
aF0.0067944810725748539
aF0.0067037949338555336
aF0.0066113942302763462
aF0.0065232240594923496
aF0.0064351372420787811
aF0.0063507161103188992
aF0.0062654176726937294
aF0.0061829271726310253
aF0.006100810132920742
aF0.0060225464403629303
aF0.0059428317472338676
aF0.0058658658526837826
aF0.0057896189391613007
aF0.0057156095281243324
aF0.00564156798645854
aF0.0055704670958220959
aF0.0054992171935737133
aF0.0054303449578583241
aF0.0053616184741258621
aF0.0052942782640457153
aF0.0052286731079220772
aF0.0051629240624606609
aF0.0050998888909816742
aF0.0050366269424557686
aF0.0049746884033083916
aF0.004914912860840559
aF0.0048543061129748821
aF0.0047951815649867058
aF0.0047374214045703411
aF0.0046806088648736477
aF0.0046241884119808674
aF0.0045695016160607338
aF0.0045147240161895752
aF0.0044614104554057121
aF0.0044089676812291145
aF0.0043571926653385162
aF0.0043053505942225456
aF0.0042556771077215672
aF0.0042057428508996964
aF0.0041566407307982445
aF0.0041096997447311878
aF0.0040616868063807487
aF0.0040157195180654526
aF0.0039694122970104218
aF0.0039237947203218937
aF0.0038796209264546633
aF0.0038357619196176529
aF0.0037925445940345526
aF0.0037501775659620762
aF0.0037084023933857679
aF0.0036670193076133728
aF0.0036258869804441929
aF0.0035858370829373598
aF0.003546498017385602
aF0.0035075461491942406
aF0.0034689961466938257
aF0.0034311264753341675
aF0.0033934593666344881
aF0.0033565044868737459
aF0.0033206420484930277
aF0.0032844846136868
aF0.0032497015781700611
aF0.0032140456605702639
aF0.003180287079885602
aF0.0031463999766856432
aF0.0031128204427659512
aF0.0030799142550677061
aF0.0030472683720290661
aF0.0030155470594763756
aF0.0029833749867975712
aF0.0029526075813919306
aF0.0029215493705123663
aF0.0028911055997014046
aF0.0028612888418138027
aF0.0028312322683632374
aF0.0028025887440890074
aF0.0027735535986721516
aF0.002745089353993535
aF0.0027170572429895401
aF0.0026893399190157652
aF0.0026625113096088171
aF0.0026350368279963732
aF0.0026087008882313967
aF0.0025820182636380196
aF0.0025561649817973375
aF0.0025307077448815107
aF0.0025052258279174566
aF0.0024801832623779774
aF0.0024557099677622318
aF0.0024311831220984459
aF0.0024073196109384298
aF0.0023836989421397448
aF0.0023599003907293081
aF0.0023367260582745075
aF0.0023138190153986216
aF0.0022913715802133083
aF0.0022688503377139568
aF0.0022468725219368935
aF0.0022249221801757812
aF0.0022035064175724983
aF0.0021821600385010242
aF0.0021611603442579508
aF0.002140288008376956
aF0.0021200468763709068
aF0.0020995833911001682
aF0.0020797671750187874
aF0.0020600608550012112
aF0.002040443941950798
aF0.0020211045630276203
aF0.0020019025541841984
aF0.0019832509569823742
aF0.0019644058775156736
aF0.00194594357162714
aF0.0019276604289188981
aF0.0019099336350336671
aF0.0018921360606327653
aF0.0018745913403108716
aF0.0018570394022390246
aF0.0018397693056613207
aF0.0018227649852633476
aF0.0018063472816720605
aF0.0017894528573378921
aF0.0017728415550664067
aF0.0017569252522662282
aF0.0017407923005521297
aF0.001724867383018136
aF0.0017092329217121005
aF0.0016936735482886434
aF0.0016782543389126658
aF0.0016634941566735506
aF0.0016479521291330457
aF0.0016334865940734744
aF0.0016188303707167506
aF0.0016041625058278441
aF0.0015896335244178772
aF0.0015757401706650853
aF0.0015613845316693187
aF0.0015476559055969119
aF0.0015340964309871197
aF0.0015202565118670464
aF0.0015070019289851189
aF0.001493566669523716
aF0.0014805461978539824
aF0.0014673897530883551
aF0.0014545412268489599
aF0.0014419310027733445
aF0.001429028925485909
aF0.0014167886693030596
aF0.0014043345581740141
aF0.0013920566998422146
aF0.0013799624284729362
aF0.0013681830605491996
aF0.0013563473476096988
aF0.0013447212986648083
aF0.0013329737121239305
aF0.0013215267099440098
aF0.0013101693475618958
aF0.0012990416726097465
aF0.0012876626569777727
aF0.0012768123997375369
aF0.0012660950887948275
aF0.0012551683466881514
aF0.0012444857275113463
aF0.0012339042732492089
aF0.001223386381752789
aF0.0012132168048992753
aF0.0012029344215989113
aF0.0011926997685804963
aF0.001182819134555757
aF0.0011727751698344946
aF0.0011630188673734665
aF0.0011532696662470698
aF0.0011434945045039058
aF0.0011339780176058412
aF0.0011246594367548823
aF0.0011151357321068645
aF0.0011060397373512387
aF0.0010969046270474792
aF0.001087685814127326
aF0.0010788224171847105
aF0.0010698246769607067
aF0.0010610449826344848
aF0.0010523521341383457
aF0.0010434830328449607
aF0.0010350877419114113
aF0.0010266290046274662
aF0.0010181961115449667
aF0.0010099034989252687
aF0.0010017005261033773
aF0.00099336309358477592
aF0.00098539551254361868
aF0.00097736588213592768
aF0.00096955732442438602
aF0.00096160569228231907
aF0.00095385493477806449
aF0.00094615475973114371
aF0.00093859183834865689
aF0.00093092629685997963
aF0.00092343130381777883
aF0.00091616890858858824
aF0.00090875191381201148
aF0.00090144184650853276
aF0.00089432974345982075
aF0.00088704429799690843
aF0.00087999284733086824
aF0.00087306858040392399
aF0.0008660836610943079
aF0.00085925334133207798
aF0.00085237243911251426
aF0.00084560568211600184
aF0.00083897041622549295
aF0.00083235395140945911
aF0.0008257345762103796
aF0.00081928569125011563
aF0.00081275595584884286
aF0.00080641830572858453
aF0.00080010818783193827
aF0.00079382403055205941
aF0.00078759051393717527
aF0.00078143063001334667
aF0.00077534589217975736
aF0.00076935940887778997
aF0.00076325447298586369
aF0.00075734744314104319
aF0.0007514823810197413
aF0.00074555946048349142
aF0.00073977815918624401
aF0.00073418905958533287
aF0.00072842364897951484
aF0.00072281720349565148
aF0.00071716884849593043
aF0.00071174738695845008
aF0.00070625508669763803
aF0.00070078589487820864
aF0.00069545832229778171
aF0.00069008884020149708
aF0.00068485521478578448
aF0.00067953049438074231
aF0.0006743171252310276
aF0.00066924240672960877
aF0.00066407088888809085
aF0.00065898319007828832
aF0.00065397785510867834
aF0.00064907799242064357
aF0.00064418674446642399
aF0.00063921610126271844
aF0.00063438125653192401
aF0.00062955223256722093
aF0.00062486331444233656
aF0.0006200862699188292
aF0.00061538722366094589
aF0.00061082985484972596
aF0.00060612504603341222
aF0.00060155754908919334
aF0.00059717061230912805
aF0.00059263344155624509
aF0.00058815983356907964
aF0.00058377441018819809
aF0.00057934847427532077
aF0.000575004902202636
aF0.00057078705867752433
aF0.00056647241581231356
aF0.00056220981059595942
aF0.00055815232917666435
aF0.00055389694171026349
aF0.00054983806330710649
aF0.00054568808991461992
aF0.00054167688358575106
aF0.00053770467638969421
aF0.00053362268954515457
aF0.00052972853882238269
aF0.00052586180390790105
aF0.00052191992290318012
aF0.0005180619191378355
aF0.00051424000412225723
aF0.00051045126747339964
aF0.00050666835159063339
aF0.00050301983719691634
aF0.00049927883083000779
aF0.00049565924564376473
aF0.00049196591135114431
aF0.0004883780493400991
aF0.00048478587996214628
aF0.00048126885667443275
aF0.00047771859681233764
aF0.00047425500815734267
aF0.00047084633843041956
aF0.00046732497867196798
aF0.00046392498188652098
aF0.00046063913032412529
aF0.00045716401655226946
aF0.00045395331108011305
aF0.00045060244156047702
aF0.00044740040902979672
aF0.00044412468560039997
aF0.00044084028922952712
aF0.00043773362995125353
aF0.0004345301422290504
aF0.00043145526433363557
aF0.00042828934965655208
aF0.00042522314470261335
aF0.00042211503023281693
aF0.00041914419853128493
aF0.00041607077582739294
aF0.0004130652523599565
aF0.00041019701166078448
aF0.00040719436947256327
aF0.00040431311936117709
aF0.00040137695032171905
aF0.00039850003668107092
aF0.00039569826913066208
aF0.00039284734521061182
aF0.00039003835991024971
aF0.00038727125502191484
aF0.00038445790414698422
aF0.00038172549102455378
aF0.00037897282163612545
aF0.00037638345384038985
aF0.00037367414915934205
aF0.00037099808105267584
aF0.00036834226921200752
aF0.00036571532837115228
aF0.00036313317832536995
aF0.00036058426485396922
aF0.00035804111394099891
aF0.00035548355663195252
aF0.00035298665170557797
aF0.00035050854785367846
aF0.00034800442517735064
aF0.00034560146741569042
aF0.00034313925425522029
aF0.00034069293178617954
aF0.00033833185443654656
aF0.00033594190608710051
aF0.00033360251109115779
aF0.0003312385524623096
aF0.00032889770227484405
aF0.00032661177101545036
aF0.00032430706778541207
aF0.00032202113652601838
aF0.00031977856997400522
aF0.00031756199314258993
aF0.00031533098081126809
aF0.0003131505218334496
aF0.00031094983569346368
aF0.00030881274142302573
aF0.00030664962832815945
aF0.0003044937620870769
aF0.0003023884491994977
aF0.00030022245482541621
aF0.00029818073380738497
aF0.00029606962925754488
aF0.00029407849069684744
aF0.00029196884133853018
aF0.00028998058405704796
aF0.00028793307137675583
aF0.00028594478499144316
aF0.00028395940898917615
aF0.00028201594250276685
aF0.00028006525826640427
aF0.00027812033658847213
aF0.00027617395971901715
aF0.00027427962049841881
aF0.00027239829069003463
aF0.00027052126824855804
aF0.00026864427491091192
aF0.00026682508178055286
aF0.0002649509406182915
aF0.00026317077572457492
aF0.00026136601809412241
aF0.00025958003243431449
aF0.0002577593841124326
aF0.00025596906198188663
aF0.00025421346072107553
aF0.00025250838370993733
aF0.00025075708981603384
aF0.00024906359612941742
aF0.00024735278566367924
aF0.00024568094522692263
aF0.00024400769325438887
aF0.00024228529946412891
aF0.00024064093304332346
aF0.0002389893343206495
aF0.00023739699099678546
aF0.00023575696104671806
aF0.0002341545041417703
aF0.00023258238798007369
aF0.00023101025726646185
aF0.00022939624614082277
aF0.00022786168847233057
aF0.00022630258172284812
aF0.00022473913850262761
aF0.00022322770382743329
aF0.00022172638273332268
aF0.00022018606250640005
aF0.0002187324280384928
aF0.00021721811208408326
aF0.00021578326413873583
aF0.00021430650667753071
aF0.00021285143157001585
aF0.0002114064700435847
aF0.00020996730017941445
aF0.00020855989714618772
aF0.00020713084086310118
aF0.00020575233793351799
aF0.00020438396313693374
aF0.00020296790171414614
aF0.0002016096404986456
aF0.00020028895232826471
aF0.00019891044939868152
aF0.00019757097470574081
aF0.00019624161359388381
aF0.00019492670253384858
aF0.00019360599981155246
aF0.00019232576596550643
aF0.00019101663201581687
aF0.00018974361591972411
aF0.00018842580902855843
aF0.00018721926608122885
aF0.00018594626453705132
aF0.00018468913913238794
aF0.00018346960132475942
aF0.00018223559891339391
aF0.00018100449233315885
aF0.00017977916286326945
aF0.00017861886590253562
aF0.00017741376359481364
aF0.00017618843412492424
aF0.00017501658294349909
aF0.0001739068393362686
aF0.00017271042452193797
aF0.00017157179536297917
aF0.0001704013702692464
aF0.00016926997341215611
aF0.00016817179857753217
aF0.00016703461005818099
aF0.00016591910389252007
aF0.00016480359772685915
aF0.0001636953093111515
aF0.00016264626174233854
aF0.00016153942851815373
aF0.00016046292148530483
aF0.00015939799777697772
aF0.00015835618251003325
aF0.0001573100162204355
aF0.00015627399261575192
aF0.00015520759916398674
aF0.00015421202988363802
aF0.000153158645844087
aF0.00015218474436551332
aF0.00015114436973817647
aF0.00015015457756817341
aF0.00014915177598595619
aF0.0001481952058384195
aF0.00014718662714585662
aF0.00014624162577092648
aF0.00014525471488013864
aF0.00014429814473260194
aF0.0001433112338418141
aF0.00014238791482057422
aF0.00014147613546811044
aF0.00014051090693101287
aF0.00013959914213046432
aF0.00013867868983652443
aF0.0001377943845000118
aF0.00013686961028724909
aF0.00013597517681773752
aF0.00013505473907571286
aF0.00013417330046650022
aF0.00013330488582141697
aF0.00013241045235190541
aF0.00013155069609638304
aF0.00013069383567199111
aF0.00012982975749764591
aF0.00012895411055069417
aF0.00012812035856768489
aF0.00012730830349028111
aF0.00012645142851397395
aF0.00012563070049509406
aF0.00012478973076213151
aF0.00012401667481753975
aF0.00012319882807787508
aF0.0001223809813382104
aF0.00012157180026406422
aF0.0001207582899951376
aF0.00012001268623862416
aF0.00011922085104743019
aF0.00011843334505101666
aF0.00011768341209972277
aF0.00011687134247040376
aF0.00011612718662945554
aF0.00011537869431776926
aF0.00011462587281130254
aF0.0001138716033892706
aF0.00011314189760014415
aF0.00011242230539210141
aF0.00011166948388563469
aF0.00011096434172941372
aF0.00011019851081073284
aF0.00010947314149234444
aF0.0001087708878912963
aF0.00010810476669576019
aF0.00010738228593254462
aF0.00010670170740922913
aF0.00010601101530482993
aF0.00010528998245717958
aF0.00010463107901159674
aF0.00010395050048828125
aF0.00010326269693905488
aF0.00010256477980874479
aF0.00010193044727202505
aF0.00010125420521944761
aF0.00010062131332233548
aF9.9978300568182021e-05
aF9.9349745141807944e-05
aF9.8690841696225107e-05
aF9.8021824669558555e-05
aF9.741494432091713e-05
aF9.676760237198323e-05
aF9.6147712611127645e-05
aF9.5488809165544808e-05
aF9.4907933089416474e-05
aF9.4316943432204425e-05
aF9.3705726612824947e-05
aF9.3090173322707415e-05
aF9.247317211702466e-05
aF9.1898080427199602e-05
aF9.1318652266636491e-05
aF9.072621469385922e-05
aF9.0130895841866732e-05
aF8.9524008217267692e-05
aF8.8934466475620866e-05
aF8.838826761348173e-05
aF8.7805950897745788e-05
aF8.7269872892647982e-05
aF8.67106718942523e-05
aF8.6138468759600073e-05
aF8.5599494923371822e-05
aF8.5027291788719594e-05
aF8.4508552390616387e-05
aF8.3945014921482652e-05
aF8.3417602581903338e-05
aF8.282950147986412e-05
aF8.2316546468064189e-05
aF8.183248428395018e-05
aF8.1267498899251223e-05
aF8.0760320997796953e-05
aF8.0263256677426398e-05
aF7.9719946370460093e-05
aF7.9227218520827591e-05
aF7.8686804044991732e-05
aF7.818106678314507e-05
aF7.7715783845633268e-05
aF7.7208605944178998e-05
aF7.6717318734154105e-05
aF7.6195690780878067e-05
aF7.5740528700407594e-05
aF7.5240568548906595e-05
aF7.4737719842232764e-05
aF7.4291230703238398e-05
aF7.3830284236464649e-05
aF7.3328883445356041e-05
aF7.2846269176807255e-05
aF7.2422895755153149e-05
aF7.1960508648771793e-05
aF7.1502450737170875e-05
aF7.1028509410098195e-05
aF7.0557449362240732e-05
aF7.0097950811032206e-05
aF6.9650013756472617e-05
aF6.9202076701913029e-05
aF6.8772926169913262e-05
aF6.8336543336044997e-05
aF6.7891494836658239e-05
aF6.7472457885742188e-05
aF6.7056309489998966e-05
aF6.6598258854355663e-05
aF6.6170548961963505e-05
aF6.5747175540309399e-05
aF6.5348365751560777e-05
aF6.4946667407639325e-05
aF6.4523293985985219e-05
aF6.4101361203938723e-05
aF6.3685212808195502e-05
aF6.3279177993535995e-05
aF6.2912164139561355e-05
aF6.2477229221258312e-05
aF6.2061080825515091e-05
aF6.1691171140410006e-05
aF6.1309699958655983e-05
aF6.0918115195818245e-05
aF6.0532311181304976e-05
aF6.0162401496199891e-05
aF5.9775149566121399e-05
aF5.93864569964353e-05
aF5.9004985814681277e-05
aF5.863218757440336e-05
aF5.8260829973733053e-05
aF5.7886587455868721e-05
aF5.753546065534465e-05
aF5.7142431614920497e-05
aF5.6814424169715494e-05
aF5.6437289458699524e-05
aF5.6065935496008024e-05
aF5.5732147302478552e-05
aF5.537813194678165e-05
aF5.5019783758325502e-05
aF5.4671549150953069e-05
aF5.4329091653926298e-05
aF5.4001084208721295e-05
aF5.3644180297851562e-05
aF5.3310395742300898e-05
aF5.2979499741923064e-05
aF5.2629817218985409e-05
aF5.230903479969129e-05
aF5.1979586714878678e-05
aF5.1642909966176376e-05
aF5.132646401762031e-05
aF5.0998456572415307e-05
aF5.0677674153121188e-05
aF5.0333776016486809e-05
aF5.001299359719269e-05
aF4.9684986151987687e-05
aF4.9393103836337104e-05
aF4.9060763558372855e-05
aF4.8738536861492321e-05
aF4.8448098823428154e-05
aF4.8135989345610142e-05
aF4.7858557081781328e-05
aF4.7542111133225262e-05
aF4.7258898121071979e-05
aF4.6958346501924098e-05
aF4.6652014134451747e-05
aF4.6367356844712049e-05
aF4.6074030251475051e-05
aF4.5790817239321768e-05
aF4.5491709897760302e-05
aF4.5211389078758657e-05
aF4.4936845370102674e-05
aF4.4633401557803154e-05
aF4.4368975068209693e-05
aF4.4042415538569912e-05
aF4.3814110540552065e-05
aF4.3538122554309666e-05
aF4.3254909542156383e-05
aF4.2987590859411284e-05
aF4.2731833673315123e-05
aF4.245728996465914e-05
aF4.2198644223390147e-05
aF4.1905317630153149e-05
aF4.1669787606224418e-05
aF4.1379349568160251e-05
aF4.1158273234032094e-05
aF4.0899623854784295e-05
aF4.0620747313369066e-05
aF4.0372211515204981e-05
aF4.0129460103344172e-05
aF3.9899710827739909e-05
aF3.9635284338146448e-05
aF3.937085421057418e-05
aF3.9136772102210671e-05
aF3.8866564864292741e-05
aF3.8636815588688478e-05
aF3.8381054764613509e-05
aF3.8152753404574469e-05
aF3.7917223380645737e-05
aF3.766869122046046e-05
aF3.745483627426438e-05
aF3.7217861972749233e-05
aF3.697655483847484e-05
aF3.6756919143954292e-05
aF3.6506942706182599e-05
aF3.630464561865665e-05
aF3.6066227039555088e-05
aF3.5833589208777994e-05
aF3.5626959288492799e-05
aF3.539287718012929e-05
aF3.5161683626938611e-05
aF3.4943492210004479e-05
aF3.4738310205284506e-05
aF3.4505672374507412e-05
aF3.4284592402400449e-05
aF3.40822953148745e-05
aF3.3852549677249044e-05
aF3.3612683182582259e-05
aF3.342339550727047e-05
aF3.3221102057723328e-05
aF3.3030366466846317e-05
aF3.279339216533117e-05
aF3.2583873689873144e-05
aF3.2404695957666263e-05
aF3.2189396733883768e-05
aF3.1987103284336627e-05
aF3.1781917641637847e-05
aF3.162297434755601e-05
aF3.1409119401359931e-05
aF3.1215495255310088e-05
aF3.1001640309114009e-05
aF3.0818129744147882e-05
aF3.062450559809804e-05
aF3.0443885407294147e-05
aF3.0273378797573969e-05
aF3.0053744922042824e-05
aF2.987457082781475e-05
aF2.9688169888686389e-05
aF2.9495990020222962e-05
aF2.9329819881240837e-05
aF2.9144865038688295e-05
aF2.897869489970617e-05
aF2.8763395675923675e-05
aF2.8585665859282017e-05
aF2.8426718927221373e-05
aF2.8254769858904183e-05
aF2.8059699616278522e-05
aF2.787329867715016e-05
aF2.770134960883297e-05
aF2.7542402676772326e-05
aF2.7377676815376617e-05
aF2.7194168069399893e-05
aF2.7019326807931066e-05
aF2.6856047043111175e-05
aF2.6697100111050531e-05
aF2.6515035642660223e-05
aF2.6360425181337632e-05
aF2.6184139642282389e-05
aF2.602374843263533e-05
aF2.5879253371385857e-05
aF2.5711637135827914e-05
aF2.5559917048667558e-05
aF2.5382187232025899e-05
aF2.5243469281122088e-05
aF2.507007411622908e-05
aF2.4925579054979607e-05
aF2.4779637897154316e-05
aF2.4610577384009957e-05
aF2.4489199859090149e-05
aF2.4331699023605324e-05
aF2.4164084607036784e-05
aF2.4019587726797909e-05
aF2.3862086891313083e-05
aF2.3717591830063611e-05
aF2.3577429601573385e-05
aF2.3431488443748094e-05
aF2.3288437660085037e-05
aF2.3161281205830164e-05
aF2.298644176335074e-05
aF2.2866508516017348e-05
aF2.2707563402946107e-05
aF2.2583297322853468e-05
aF2.2444581190939061e-05
aF2.2291415007202886e-05
aF2.215125277871266e-05
aF2.2018317395122722e-05
aF2.1901274521951564e-05
aF2.1746664060628973e-05
aF2.1632511561620049e-05
aF2.1486572222784162e-05
aF2.1337740690796636e-05
aF2.1220697817625478e-05
aF2.1093541363370605e-05
aF2.0933151972712949e-05
aF2.0811774447793141e-05
aF2.0703402697108686e-05
aF2.0541567209875211e-05
aF2.0438974388525821e-05
aF2.029736788244918e-05
aF2.0171657524770126e-05
aF2.006762042583432e-05
aF1.9931792849092744e-05
aF1.9785851691267453e-05
aF1.966302988876123e-05
aF1.9574887119233608e-05
aF1.9466515368549153e-05
aF1.9337914636707865e-05
aF1.9203533156542107e-05
aF1.90821556316223e-05
aF1.8956445273943245e-05
aF1.885240817500744e-05
aF1.8744034605333582e-05
aF1.8626993551151827e-05
aF1.8515731426305138e-05
aF1.8407359675620683e-05
aF1.8284537873114459e-05
aF1.8187725800089538e-05
aF1.8063457901007496e-05
aF1.7947861124412157e-05
aF1.7848158677225001e-05
aF1.7745567674865015e-05
aF1.7634305550018325e-05
aF1.752593379933387e-05
aF1.738721584843006e-05
aF1.7284624846070074e-05
aF1.7180587747134268e-05
aF1.7082329577533528e-05
aF1.6988407878670841e-05
aF1.6888705431483686e-05
aF1.6773108654888347e-05
aF1.6679185137036256e-05
aF1.6547694031032734e-05
aF1.6465332009829581e-05
aF1.6354069884982891e-05
aF1.6242807760136202e-05
aF1.6161890016519465e-05
aF1.605351826583501e-05
aF1.5949481166899204e-05
aF1.5862782674957998e-05
aF1.5767414879519492e-05
aF1.5661933502997272e-05
aF1.558246003696695e-05
aF1.5505876945098862e-05
aF1.5393170542665757e-05
aF1.5305027773138136e-05
aF1.5203880138869863e-05
aF1.5128742234082893e-05
aF1.5027595509309322e-05
aF1.4933672900951933e-05
aF1.4833970453764778e-05
aF1.4740047845407389e-05
aF1.4669244592369068e-05
aF1.4573877706425264e-05
aF1.4461170394497458e-05
aF1.4388922863872722e-05
aF1.4289220416685566e-05
aF1.4192407434165943e-05
aF1.409270589647349e-05
aF1.4014677617524285e-05
aF1.3940984899818432e-05
aF1.385284213029081e-05
aF1.3776259038422722e-05
aF1.3678001778316684e-05
aF1.359130419587018e-05
aF1.3508941265172325e-05
aF1.3441028386296239e-05
aF1.335577508143615e-05
aF1.3256072634248994e-05
aF1.3172265425964724e-05
aF1.3097127521177754e-05
aF1.3026324268139433e-05
aF1.2945406524522696e-05
aF1.2870268619735725e-05
aF1.277056617254857e-05
aF1.2701208106591366e-05
aF1.2605840311152861e-05
aF1.2540816896944307e-05
aF1.2449784662749153e-05
aF1.2380426596791949e-05
aF1.2299508853175212e-05
aF1.2254715329618193e-05
aF1.2186801541247405e-05
aF1.2091434655303601e-05
aF1.199895723402733e-05
aF1.1933933819818776e-05
aF1.1834231372631621e-05
aF1.1780767636082601e-05
aF1.170562973129563e-05
aF1.1629046639427543e-05
aF1.1555353921721689e-05
aF1.1507670024002437e-05
aF1.1429641745053232e-05
aF1.1345834536768962e-05
aF1.1286590961390175e-05
aF1.1237462786084507e-05
aF1.1175328836543486e-05
aF1.1095856280007865e-05
aF1.1030832865799312e-05
aF1.0954249773931224e-05
aF1.0882002243306488e-05
aF1.0808308616105933e-05
aF1.0746175576059613e-05
aF1.0682597348932177e-05
aF1.0626244147715624e-05
aF1.053954656526912e-05
aF1.04860828287201e-05
aF1.0409499736852013e-05
aF1.0345921509724576e-05
aF1.0286677934345789e-05
aF1.0231769010715652e-05
aF1.0162410944758449e-05
aF1.0097388440044597e-05
aF1.0043924703495577e-05
aF9.983235941035673e-06
aF9.9398876045597717e-06
aF9.8849786809296347e-06
aF9.814175427891314e-06
aF9.7433721748529933e-06
aF9.6667899924796075e-06
aF9.6162157205981202e-06
aF9.5454133770545013e-06
aF9.48761407926213e-06
aF9.4384859039564617e-06
aF9.3835769803263247e-06
aF9.3474536697613075e-06
aF9.2867649073014036e-06
aF9.2333011707523838e-06
aF9.1639431047951803e-06
aF9.1046995294163935e-06
aF9.0396761152078398e-06
aF8.9833229139912874e-06
aF8.915410035115201e-06
aF8.8561664597364143e-06
aF8.8070373749360442e-06
aF8.7593543867114931e-06
aF8.6957761595840566e-06
aF8.6466470747836865e-06
aF8.58306884765625e-06
aF8.5483898146776482e-06
aF8.4949260781286284e-06
aF8.4544672063202597e-06
aF8.408228495682124e-06
aF8.3634349721251056e-06
aF8.3229761003167368e-06
aF8.269512363767717e-06
aF8.2131591625511646e-06
aF8.166920451913029e-06
aF8.1177913671126589e-06
aF8.0599929788149893e-06
aF8.0007494034362026e-06
aF7.9574010669603013e-06
aF7.906826795078814e-06
aF7.8678131103515625e-06
aF7.8129041867214255e-06
aF7.7753356890752912e-06
aF7.7348768172669224e-06
aF7.6944179454585537e-06
aF7.6423993959906511e-06
aF7.5874904723605141e-06
aF7.5412517617223784e-06
aF7.4834533734247088e-06
aF7.4401045822014567e-06
aF7.3794162744889036e-06
aF7.3461819738440681e-06
aF7.3057231020356994e-06
aF7.2710440690570977e-06
aF7.2334751166636124e-06
aF7.1626723183726426e-06
aF7.1308827500615735e-06
aF7.0817541200085543e-06
aF7.0571900323557202e-06
aF7.0225109993771184e-06
aF6.983496859902516e-06
aF6.9459279075090308e-06
aF6.892464170960011e-06
aF6.8520052991516422e-06
aF6.814436346758157e-06
aF6.7696428232011385e-06
aF6.7219589254818857e-06
aF6.6930597313330509e-06
aF6.6598254306882154e-06
aF6.6078068812203128e-06
aF6.5659032770781778e-06
aF6.5138847276102751e-06
aF6.4719806687207893e-06
aF6.440191555157071e-06
aF6.4084024415933527e-06
aF6.373723408614751e-06
aF6.3448242144659162e-06
aF6.3029201555764303e-06
aF6.271131042012712e-06
aF6.2162225731299259e-06
aF6.1772084336553235e-06
aF6.1396394812618382e-06
aF6.1165201259427704e-06
aF6.0659467635559849e-06
aF6.0486072470666841e-06
aF5.9951435105176643e-06
aF5.957574558124179e-06
aF5.9026660892413929e-06
aF5.8549821915221401e-06
aF5.8304181038693059e-06
aF5.7841793932311703e-06
aF5.7581701184972189e-06
aF5.7090410336968489e-06
aF5.6729172683844808e-06
aF5.649797913065413e-06
aF5.6180087995016947e-06
aF5.5746600082784425e-06
aF5.5327559493889567e-06
aF5.4937422646617051e-06
aF5.456172857520869e-06
aF5.4388333410315681e-06
aF5.3983744692231994e-06
aF5.3781450333190151e-06
aF5.3319063226808794e-06
aF5.3001172091171611e-06
aF5.2596583373087924e-06
aF5.2350937949086074e-06
aF5.2105297072557732e-06
aF5.178740593692055e-06
aF5.1527313189581037e-06
aF5.1209422053943854e-06
aF5.0934877435793169e-06
aF5.0602538976818323e-06
aF5.0327994358667638e-06
aF5.0111252676288132e-06
aF4.979335699317744e-06
aF4.943211934005376e-06
aF4.9172026592714246e-06
aF4.8883034651225898e-06
aF4.8724086809670553e-06
aF4.8420647544844542e-06
aF4.8319498091586865e-06
aF4.8001606955949683e-06
aF4.7597018237865996e-06
aF4.7279127102228813e-06
aF4.6744489736738615e-06
aF4.6527748054359108e-06
aF4.6195405047910754e-06
aF4.5964211494720075e-06
aF4.5733017941529397e-06
aF4.5458477870852221e-06
aF4.5140582187741529e-06
aF4.4793791857955512e-06
aF4.4620396693062503e-06
aF4.4418102334020659e-06
aF4.4158009586681146e-06
aF4.3840118451043963e-06
aF4.3594477574515622e-06
aF4.3377731344662607e-06
aF4.3030941014876589e-06
aF4.2814194785023574e-06
aF4.2366259549453389e-06
aF4.2163965190411545e-06
aF4.1658227019070182e-06
aF4.1325888560095336e-06
aF4.1138041524391156e-06
aF4.086350145371398e-06
aF4.0661207094672136e-06
aF4.0430008994007949e-06
aF4.0227714634966105e-06
aF3.9982073758437764e-06
aF3.9765327528584749e-06
aF3.9577485040354077e-06
aF3.9288493098865729e-06
aF3.9086198739823885e-06
aF3.8681610021740198e-06
aF3.839261808025185e-06
aF3.8118073462101165e-06
aF3.7944678297208156e-06
aF3.7771283132315148e-06
aF3.7511190384975635e-06
aF3.7265547234710539e-06
aF3.709215206981753e-06
aF3.6962105696147773e-06
aF3.6615313092625001e-06
aF3.6384119539434323e-06
aF3.6080678000871558e-06
aF3.573388767108554e-06
aF3.5661639685713453e-06
aF3.5473794923746027e-06
aF3.5300399758853018e-06
aF3.4924710234918166e-06
aF3.4664617487578653e-06
aF3.4476770451874472e-06
aF3.4173328913311707e-06
aF3.3999933748418698e-06
aF3.3797639389376855e-06
aF3.3624244224483846e-06
aF3.3407500268367585e-06
aF3.3219655506400159e-06
aF3.3017361147358315e-06
aF3.2916213967837393e-06
aF3.2612772429274628e-06
aF3.2453826861456037e-06
aF3.2482726055604871e-06
aF3.2309330890711863e-06
aF3.2063685466710012e-06
aF3.1861391107668169e-06
aF3.1716895136923995e-06
aF3.1442352792510064e-06
aF3.141345359836123e-06
aF3.1138911253947299e-06
aF3.0979965686128708e-06
aF3.0806570521235699e-06
aF3.0604276162193855e-06
aF3.0271935429482255e-06
aF3.0055191473365994e-06
aF2.9852897114324151e-06
aF2.9549453302024631e-06
aF2.9361608540057205e-06
aF2.9246011763461865e-06
aF2.9058167001494439e-06
aF2.8971469419047935e-06
aF2.8957019821973518e-06
aF2.8725826268782839e-06
aF2.8639128686336335e-06
aF2.8364586341922404e-06
aF2.8118943191657308e-06
aF2.7974447220913135e-06
aF2.7916648832615465e-06
aF2.7786602458945708e-06
aF2.7642106488201534e-06
aF2.7410910661274102e-06
aF2.7324213078827597e-06
aF2.7121918719785754e-06
aF2.6832926778297406e-06
aF2.6760678792925319e-06
aF2.658728362803231e-06
aF2.6428338060213719e-06
aF2.6240493298246292e-06
aF2.6124896521650953e-06
aF2.5951501356757944e-06
aF2.5720307803567266e-06
aF2.5648059818195179e-06
aF2.5445765459153336e-06
aF2.5229021503037075e-06
aF2.489667849658872e-06
aF2.483888010829105e-06
aF2.4694384137546876e-06
aF2.4549888166802702e-06
aF2.4477640181430615e-06
aF2.4434291390207363e-06
aF2.4246446628239937e-06
aF2.4130849851644598e-06
aF2.4101950657495763e-06
aF2.4015253075049259e-06
aF2.3711811536486493e-06
aF2.3538416371593485e-06
aF2.345171878914698e-06
aF2.3206075638881885e-06
aF2.3191626041807467e-06
aF2.2989331682765624e-06
aF2.2801486920798197e-06
aF2.2743688532500528e-06
aF2.2613639885094017e-06
aF2.2498043108498678e-06
aF2.248359351142426e-06
aF2.2310198346531251e-06
aF2.2223500764084747e-06
aF2.2050105599191738e-06
aF2.1963408016745234e-06
aF2.1804462448926643e-06
aF2.1587718492810382e-06
aF2.1515470507438295e-06
aF2.1298726551322034e-06
aF2.1313176148396451e-06
aF2.103863380398252e-06
aF2.082188984786626e-06
aF2.0749641862494173e-06
aF2.0634045085898833e-06
aF2.0460649921005825e-06
aF2.0301704353187233e-06
aF2.0142756511631887e-06
aF2.0113857317483053e-06
aF1.9998260540887713e-06
aF1.9853764570143539e-06
aF1.9723718196473783e-06
aF1.9564772628655192e-06
aF1.9449175852059852e-06
aF1.9333579075464513e-06
aF1.9203532701794757e-06
aF1.9145734313497087e-06
aF1.8842292774934322e-06
aF1.8813393580785487e-06
aF1.8639998415892478e-06
aF1.8611099221743643e-06
aF1.842325332290784e-06
aF1.8408803725833423e-06
aF1.8264307755089249e-06
aF1.8177610172642744e-06
aF1.8105362187270657e-06
aF1.8047563798972988e-06
aF1.7874168634079979e-06
aF1.7801920648707892e-06
aF1.7715223066261387e-06
aF1.7599626289666048e-06
aF1.7527378304293961e-06
aF1.7397331930624205e-06
aF1.7397331930624205e-06
aF1.7252834823011653e-06
aF1.7195036434713984e-06
aF1.7036090866895393e-06
aF1.6963842881523306e-06
aF1.6920494090300053e-06
aF1.6775998119555879e-06
aF1.666040134296054e-06
aF1.6530354969290784e-06
aF1.6400308595621027e-06
aF1.6226913430728018e-06
aF1.6140215848281514e-06
aF1.6082416323115467e-06
aF1.5909021158222458e-06
aF1.5851222769924789e-06
aF1.5764525187478284e-06
aF1.5706726799180615e-06
aF1.5504432440138771e-06
aF1.5331037275245762e-06
aF1.5331037275245762e-06
aF1.5273238886948093e-06
aF1.5143192513278336e-06
aF1.5099843722055084e-06
aF1.5085394124980667e-06
aF1.5056494930831832e-06
aF1.4883098629070446e-06
aF1.4883098629070446e-06
aF1.4810850643698359e-06
aF1.4738602658326272e-06
aF1.4594106687582098e-06
aF1.4464060313912341e-06
aF1.4377362731465837e-06
aF1.4276215551944915e-06
aF1.4189517969498411e-06
aF1.4146169178275159e-06
aF1.3886076430935645e-06
aF1.3799378848489141e-06
aF1.3741580460191472e-06
aF1.3553734561355668e-06
aF1.3582633755504503e-06
aF1.3568184158430086e-06
aF1.3438137784760329e-06
aF1.3308091411090572e-06
aF1.3206944231569651e-06
aF1.3120246649123146e-06
aF1.3004649872527807e-06
aF1.2975750678378972e-06
aF1.2831254707634798e-06
aF1.2730107528113876e-06
aF1.2715657931039459e-06
aF1.2628960348592955e-06
aF1.2614510751518537e-06
aF1.2441114449757151e-06
aF1.2397765658533899e-06
aF1.2296618479012977e-06
aF1.2267719284864143e-06
aF1.222437049364089e-06
aF1.2152122508268803e-06
aF1.2094324119971134e-06
aF1.1935378552152542e-06
aF1.1935378552152542e-06
aF1.1805332178482786e-06
aF1.1805332178482786e-06
aF1.1689735401887447e-06
aF1.161748741651536e-06
aF1.1530789834068855e-06
aF1.1415193057473516e-06
aF1.1386293863324681e-06
aF1.1285145546935382e-06
aF1.1256246352786548e-06
aF1.1212897561563295e-06
aF1.1140649576191208e-06
aF1.1111750382042374e-06
aF1.1039502396670287e-06
aF1.1010603202521452e-06
aF1.0866107231777278e-06
aF1.0793859246405191e-06
aF1.0678262469809852e-06
aF1.0663812872735434e-06
aF1.0606014484437765e-06
aF1.0533766499065678e-06
aF1.0504867304916843e-06
aF1.0461518513693591e-06
aF1.0389270528321504e-06
aF1.0345921737098251e-06
aF1.0215875363428495e-06
aF1.0100277449964778e-06
aF1.0013579867518274e-06
aF9.9991302704438567e-07
aF9.9124326879973523e-07
aF9.8257351055508479e-07
aF9.7968359114020132e-07
aF9.7968359114020132e-07
aF9.7679367172531784e-07
aF9.7679367172531784e-07
aF9.7390375231043436e-07
aF9.681239134806674e-07
aF9.6378903435834218e-07
aF9.608991149434587e-07
aF9.5511927611369174e-07
aF9.4355959845415782e-07
aF9.3777975962439086e-07
aF9.2911000137974042e-07
aF9.1466034746190417e-07
aF9.0599058921725373e-07
aF9.0021075038748677e-07
aF9.0165571009492851e-07
aF8.8431619360562763e-07
aF8.7853635477586067e-07
aF8.6553171740888502e-07
aF8.5686190232081572e-07
aF8.525270231984905e-07
aF8.6264174115058267e-07
aF8.5830686202825746e-07
aF8.4963710378360702e-07
aF8.525270231984905e-07
aF8.4819214407616528e-07
aF8.4674718436872354e-07
aF8.4385726495384006e-07
aF8.4602470451500267e-07
aF8.4313478510011919e-07
aF8.4168982539267745e-07
aF8.3590998656291049e-07
aF8.3157510744058527e-07
aF8.1568055065872613e-07
aF8.2001542978105135e-07
aF8.1279063124384265e-07
aF8.0701079241407569e-07
aF8.0267585644833161e-07
aF8.0050841688716901e-07
aF7.9183865864251857e-07
aF7.9183865864251857e-07
aF7.8750377952019335e-07
aF7.7305418244577595e-07
aF7.7305418244577595e-07
aF7.6582938390856725e-07
aF7.6293946449368377e-07
aF7.5715962566391681e-07
aF7.5715962566391681e-07
aF7.455999480043829e-07
aF7.4704490771182464e-07
aF7.4848986741926637e-07
aF7.4704490771182464e-07
aF7.3548517320887186e-07
aF7.2537045525677968e-07
aF7.1670069701212924e-07
aF7.224805358418962e-07
aF7.1959061642701272e-07
aF7.1092085818236228e-07
aF7.0514101935259532e-07
aF7.0225109993771184e-07
aF6.9863870066910749e-07
aF6.9213638198561966e-07
aF6.9213638198561966e-07
aF6.9213638198561966e-07
aF6.8635654315585271e-07
aF6.7768672806778341e-07
aF6.6973944967685384e-07
aF6.6540457055452862e-07
aF6.6612705040824949e-07
aF6.6179217128592427e-07
aF6.6395961084708688e-07
aF6.5745729216359905e-07
aF6.538448928949947e-07
aF6.46620094357786e-07
aF6.4589761450406513e-07
aF6.4445265479662339e-07
aF6.3867281596685643e-07
aF6.2928057786848512e-07
aF6.3433793684453121e-07
aF6.2494564190274104e-07
aF6.2061076278041583e-07
aF6.0905108512088191e-07
aF6.1483092395064887e-07
aF6.0327124629111495e-07
aF6.0543868585227756e-07
aF6.0182628658367321e-07
aF6.0471620599855669e-07
aF5.9676892760762712e-07
aF5.9315652833902277e-07
aF5.9026660892413929e-07
aF5.8665420965553494e-07
aF5.9315652833902277e-07
aF5.852092499480932e-07
aF5.8448677009437233e-07
aF5.8737668950925581e-07
aF5.7437205214228015e-07
aF5.7870693126460537e-07
aF5.696759330930945e-07
aF5.6786973345879233e-07
aF5.6425727734676911e-07
aF5.599223982244439e-07
aF5.5450379932153737e-07
aF5.5703247880956042e-07
aF5.5089140005293302e-07
aF5.5233635976037476e-07
aF5.5089140005293302e-07
aF5.4294412166200345e-07
aF5.3355188356363215e-07
aF5.2307592568467953e-07
aF5.1837980663549388e-07
aF5.2054724619665649e-07
aF5.1187748795200605e-07
aF5.1404492751316866e-07
aF5.1332244765944779e-07
aF5.0645883220568066e-07
aF5.0284643293707632e-07
aF5.0176271315649501e-07
aF4.9742783403416979e-07
aF4.9923403366847197e-07
aF5.0067899337591371e-07
aF4.9562163439986762e-07
aF4.912867552775424e-07
aF4.8839683586265892e-07
aF4.85145676520915e-07
aF4.8261699703289196e-07
aF4.8622939630149631e-07
aF4.8117203732545022e-07
aF4.8153327725231065e-07
aF4.7719839812998543e-07
aF4.757534384225437e-07
aF4.757534384225437e-07
aF4.7250227908079978e-07
aF4.6636120032417239e-07
aF4.6347128090928891e-07
aF4.6130381292641687e-07
aF4.5985885321897513e-07
aF4.5588521402351034e-07
aF4.4685421585199947e-07
aF4.4829917555944121e-07
aF4.4251933672967425e-07
aF4.4649297592513904e-07
aF4.4324181658339512e-07
aF4.4143561694909295e-07
aF4.3926817738793034e-07
aF4.3384957848502381e-07
aF4.3384957848502381e-07
aF4.2517979181866394e-07
aF4.2192863247692003e-07
aF4.2228987240378046e-07
aF4.2048367276947829e-07
aF4.1614879364715307e-07
aF4.1578755372029264e-07
aF4.1073019474424655e-07
aF4.0458911598761915e-07
aF4.1145267459796742e-07
aF4.0350539620703785e-07
aF3.9158445019893406e-07
aF3.9519684946753841e-07
aF3.8869453078405058e-07
aF3.8688833114974841e-07
aF3.8724957107660885e-07
aF3.8616585129602754e-07
aF3.7894105275881884e-07
aF3.8038601246626058e-07
aF3.836371718080045e-07
aF3.7821857290509797e-07
aF3.7713485312451667e-07
aF3.7532865349021449e-07
aF3.7099374594617984e-07
aF3.6991002616559854e-07
aF3.6593638697013375e-07
aF3.5907282835978549e-07
aF3.6340770748211071e-07
aF3.5582166901804158e-07
aF3.5546042909118114e-07
aF3.5654414887176245e-07
aF3.5040307011513505e-07
aF3.4751315070025157e-07
aF3.4823563055397244e-07
aF3.457069510659494e-07
aF3.4462323128536809e-07
aF3.4137204352191475e-07
aF3.4028832374133344e-07
aF3.3739840432644996e-07
aF3.3559220469214779e-07
aF3.3378600505784561e-07
aF3.3306352520412474e-07
aF3.3342476513098518e-07
aF3.31618565496683e-07
aF3.2764492630121822e-07
aF3.2872864608179952e-07
aF3.2764492630121822e-07
aF3.2981236586238083e-07
aF3.2547748674005561e-07
aF3.23310047178893e-07
aF3.2403252703261387e-07
aF3.2186508747145126e-07
aF3.2078136769086996e-07
aF3.1644648856854474e-07
aF3.1680772849540517e-07
aF3.1680772849540517e-07
aF3.1427904900738213e-07
aF3.0994414146334748e-07
aF3.0849918175590574e-07
aF3.0922166160962661e-07
aF3.1247282095137052e-07
aF3.1138910117078922e-07
aF3.081379418290453e-07
aF3.0849918175590574e-07
aF3.07054222048464e-07
aF3.0235810299927834e-07
aF3.0271934292613878e-07
aF3.009131432918366e-07
aF3.0019066343811573e-07
aF2.9910694365753443e-07
aF2.9766198395009269e-07
aF2.9441082460834878e-07
aF2.9946818358439486e-07
aF2.9585578431579052e-07
aF2.9549454438893008e-07
aF2.8971470555916312e-07
aF2.9404958468148834e-07
aF2.8718602607114008e-07
aF2.8610230629055877e-07
aF2.8357362680253573e-07
aF2.8176739874652412e-07
aF2.7887747933164064e-07
aF2.774325196241989e-07
aF2.7273640057501325e-07
aF2.6948524123326933e-07
aF2.6587284196466499e-07
aF2.6298292254978151e-07
aF2.618992027692002e-07
aF2.6226044269606064e-07
aF2.6478912218408368e-07
aF2.5900928335431672e-07
aF2.5937052328117716e-07
aF2.5575812401257281e-07
aF2.5684184379315411e-07
aF2.5322941610284033e-07
aF2.5178445639539859e-07
aF2.4997825676109642e-07
aF2.4961701683423598e-07
aF2.5214569632225903e-07
aF2.4636585749249207e-07
aF2.4889453698051511e-07
aF2.4600461756563163e-07
aF2.467270974193525e-07
aF2.4130849851644598e-07
aF2.4022477873586467e-07
aF2.373348593209812e-07
aF2.3625113954039989e-07
aF2.3227750034493511e-07
aF2.3155502049121424e-07
aF2.2974880664605735e-07
aF2.2902632679233648e-07
aF2.2830384693861561e-07
aF2.26136407377453e-07
aF2.2469144767001126e-07
aF2.2433020774315082e-07
aF2.2469144767001126e-07
aF2.2107904840140691e-07
aF2.2107904840140691e-07
aF2.149379554339248e-07
aF2.1674416927908169e-07
aF2.1168679609218088e-07
aF2.1313175579962262e-07
aF2.1096431623846001e-07
aF2.0735191696985567e-07
aF2.1096431623846001e-07
aF2.0915811660415784e-07
aF2.087968766772974e-07
aF2.0482323748183262e-07
aF2.0229455799380958e-07
aF1.9615346502632747e-07
aF1.9615346502632747e-07
aF1.9470850531888573e-07
aF1.9145734597714181e-07
aF1.8856742656225833e-07
aF1.9037362619656051e-07
aF1.8784494670853746e-07
aF1.8495501308279927e-07
aF1.7989765410675318e-07
aF1.8567749293652014e-07
aF1.8098137388733448e-07
aF1.8459377315593883e-07
aF1.7953641417989274e-07
aF1.8206509366791579e-07
aF1.7628525483814883e-07
aF1.7339533542326535e-07
aF1.759240149112884e-07
aF1.7231161564268405e-07
aF1.7267285556954448e-07
aF1.7086664172438759e-07
aF1.6942168201694585e-07
aF1.6797672230950411e-07
aF1.6797672230950411e-07
aF1.6653176260206237e-07
aF1.6328060326031846e-07
aF1.6039068384543498e-07
aF1.5713952450369106e-07
aF1.5172091138992982e-07
aF1.5135967146306939e-07
aF1.5027595168248808e-07
aF1.463023124870233e-07
aF1.4268991321841895e-07
aF1.4268991321841895e-07
aF1.3474262061663467e-07
aF1.2932402171372814e-07
aF1.3004650156744901e-07
aF1.340201407629138e-07
aF1.2715658215256553e-07
aF1.3185270120175119e-07
aF1.1993176940450212e-07
aF1.1704184998961864e-07
aF1.1090076412756389e-07
aF1.0223099877748609e-07
aF1.0078603907004435e-07
aF9.7896112549733516e-08
aF9.3922473354268732e-08
aF9.5728672988570906e-08
aF9.067130690709746e-08
aF8.778138749221398e-08
aF9.6089912915431341e-08
aF8.4530221045042708e-08
aF9.3561233427408297e-08
aF9.139378676081833e-08
aF8.0195341922717489e-08
aF6.9719369832910161e-08
aF6.8635650052328856e-08
aF7.1525576572639693e-08
aF7.2609296353220998e-08
aF6.7551930271747551e-08
aF7.8750382215275749e-08
aF8.3085261337600969e-08
aF7.0803096718918823e-08
aF6.5023250783724507e-08
aF6.6106970564305811e-08
aF5.8882164921669755e-08
aF6.14108444096928e-08
aF5.9604644775390625e-08
aF7.6221695621825347e-08
aF6.7190690344887116e-08
aF7.9111622142136184e-08
aF8.850386734593485e-08
aF7.6944175475546217e-08
aF9.1755026687678765e-08
aF7.7305415402406652e-08
aF8.0917821776438359e-08
aF7.5137975841244042e-08
aF8.9587587126516155e-08
aF5.924340484853019e-08
aF9.5367433061710472e-08
aF8.8142627419074415e-08
aF1.3293642098233249e-07
aF1.0692711782667175e-07
aF6.068836455597193e-08
aF7.8027895256127522e-08
aF8.3807741191321838e-08
aF8.6697667711632675e-08
aF7.2248056426360563e-08
aF1.4449611285272113e-07
aF1.7339533542326535e-07
aF1.5605579051225504e-07
aF2.7165268079443194e-07
aF6.8780150286329444e-07
aF1.3351440202313825e-06
aF0.093071542680263519
aF1.903398871421814
aF0.57383096218109131
aF1.2377502918243408
aF0.11822188645601273
aF0.004817962646484375
aF0.029055779799818993
aF0.00066039344528689981
aF0.00022780678409617394
aF0.00013246825255919248
aF9.7153402748517692e-05
aF7.1791444497648627e-05
aF5.5544303904753178e-05
aF4.5441134716384113e-05
aF3.8586240407312289e-05
aF3.3950804208870977e-05
aF3.0494458769680932e-05
aF2.7720134312403388e-05
aF2.5535351596772671e-05
aF2.3523965865024365e-05
aF2.2148364223539829e-05
aF2.0662942915805615e-05
aF1.9460736439214088e-05
aF1.8455042663845234e-05
aF1.7495589418103918e-05
aF1.6570813386351801e-05
aF1.5830994016141631e-05
aF1.5218330190691631e-05
aF1.4594106687582098e-05
aF1.4154838936519809e-05
aF1.3565294466388877e-05
aF1.3068228327028919e-05
aF1.2605840311152861e-05
aF1.2328408047324046e-05
aF1.1866020031447988e-05
aF1.1565468412300106e-05
aF1.1183999049535487e-05
aF1.0860327165573835e-05
aF1.0536656191106886e-05
aF1.0328581993235275e-05
aF1.0074269084725529e-05
aF9.8430746220401488e-06
aF9.6350004241685383e-06
aF9.4731649369350635e-06
aF9.2766504167229868e-06
aF9.0916955741704442e-06
aF8.860501111485064e-06
aF8.6293075582943857e-06
aF8.4096736827632412e-06
aF8.2940769061679021e-06
aF8.1784801295725629e-06
aF7.9472856668871827e-06
aF7.8316888902918436e-06
aF7.623614692420233e-06
aF7.484898560505826e-06
aF7.357741651503602e-06
aF7.2652642302273307e-06
aF7.1496674536319915e-06
aF7.0571900323557202e-06
aF6.9589327722496819e-06
aF6.935813416930614e-06
aF6.7739774749497883e-06
aF6.7277387643116526e-06
aF6.6352613430353813e-06
aF6.5659032770781778e-06
aF6.4271866904164199e-06
aF6.3809479797782842e-06
aF6.3578286244592164e-06
aF6.265351203182945e-06
aF6.126635071268538e-06
aF6.0688366829708684e-06
aF5.9994786170136649e-06
aF5.9532394516281784e-06
aF5.9070007409900427e-06
aF5.8492023526923731e-06
aF5.7798442867351696e-06
aF5.7104862207779661e-06
aF5.7104862207779661e-06
aF5.6642475101398304e-06
aF5.5948894441826269e-06
aF5.5024120229063556e-06
aF5.4446131798613351e-06
aF5.3752551139041316e-06
aF5.3521357585850637e-06
aF5.2943373702873942e-06
aF5.2480986596492585e-06
aF5.2480986596492585e-06
aF5.1325018830539193e-06
aF5.1093825277348515e-06
aF5.0978228500753175e-06
aF5.028464784118114e-06
aF5.028464784118114e-06
aF4.9822256187326275e-06
aF4.912867552775424e-06
aF4.8897481974563561e-06
aF4.8666288421372883e-06
aF4.7972707761800848e-06
aF4.7394723878824152e-06
aF4.7163530325633474e-06
aF4.6701143219252117e-06
aF4.5776369006489404e-06
aF4.5313981900108047e-06
aF4.5313981900108047e-06
aF4.5313981900108047e-06
aF4.4851590246253181e-06
aF4.4851590246253181e-06
aF4.4620396693062503e-06
aF4.4851590246253181e-06
aF4.4389203139871825e-06
aF4.4158009586681146e-06
aF4.3926816033490468e-06
aF4.3233235373918433e-06
aF4.3464428927109111e-06
aF4.3002041820727754e-06
aF4.2770848267537076e-06
aF4.3002041820727754e-06
aF4.2539654714346398e-06
aF4.2539654714346398e-06
aF4.2308461161155719e-06
aF4.2077267607965041e-06
aF4.1846074054774363e-06
aF4.1614880501583684e-06
aF4.1383686948393006e-06
aF4.1383686948393006e-06
aF4.1383686948393006e-06
aF4.1152493395202328e-06
aF4.1152493395202328e-06
aF4.0921299842011649e-06
aF4.1383686948393006e-06
aF4.1152493395202328e-06
aF4.0921299842011649e-06
aF3.9996521081775427e-06
aF3.9765327528584749e-06
aF3.953413397539407e-06
aF3.953413397539407e-06
aF3.953413397539407e-06
aF3.953413397539407e-06
aF3.953413397539407e-06
aF3.9302940422203392e-06
aF3.9071746869012713e-06
aF3.9071746869012713e-06
aF3.8840553315822035e-06
aF3.8840553315822035e-06
aF3.8378166209440678e-06
aF3.8609359762631357e-06
aF3.8609359762631357e-06
aF3.8609359762631357e-06
aF3.8378166209440678e-06
aF3.8378166209440678e-06
aF3.8378166209440678e-06
aF3.8378166209440678e-06
aF3.7800182326463982e-06
aF3.7800182326463982e-06
aF3.7800182326463982e-06
aF3.7684585549868643e-06
aF3.7684585549868643e-06
aF3.7684585549868643e-06
aF3.7684585549868643e-06
aF3.7222198443487287e-06
aF3.6991004890296608e-06
aF3.6991004890296608e-06
aF3.6759809063369175e-06
aF3.7222198443487287e-06
aF3.7222198443487287e-06
aF3.7222198443487287e-06
aF3.7222198443487287e-06
aF3.6991004890296608e-06
aF3.6991004890296608e-06
aF3.6991004890296608e-06
aF3.6991004890296608e-06
aF3.6991004890296608e-06
aF3.6991004890296608e-06
aF3.6759809063369175e-06
aF3.6759809063369175e-06
aF3.6528615510178497e-06
aF3.6528615510178497e-06
aF3.6528615510178497e-06
aF3.6528615510178497e-06
aF3.606622840379714e-06
aF3.5199252579332097e-06
aF3.5199252579332097e-06
aF3.4968059026141418e-06
aF3.4968059026141418e-06
aF3.4968059026141418e-06
aF3.4968059026141418e-06
aF3.4968059026141418e-06
aF3.4968059026141418e-06
aF3.4968059026141418e-06
aF3.4968059026141418e-06
aF3.473686547295074e-06
aF3.473686547295074e-06
aF3.473686547295074e-06
aF3.4505669646023307e-06
aF3.4505669646023307e-06
aF3.4505669646023307e-06
aF3.473686547295074e-06
aF3.473686547295074e-06
aF3.4505669646023307e-06
aF3.4274476092832629e-06
aF3.4274476092832629e-06
aF3.4274476092832629e-06
aF3.4274476092832629e-06
aF3.4274476092832629e-06
aF3.4274476092832629e-06
aF3.4274476092832629e-06
aF3.4274476092832629e-06
aF3.3812088986451272e-06
aF3.3812088986451272e-06
aF3.3812088986451272e-06
aF3.404328253964195e-06
aF3.404328253964195e-06
aF3.404328253964195e-06
aF3.404328253964195e-06
aF3.404328253964195e-06
aF3.404328253964195e-06
aF3.404328253964195e-06
aF3.404328253964195e-06
aF3.3812088986451272e-06
aF3.3580895433260594e-06
aF3.3580895433260594e-06
aF3.3580895433260594e-06
aF3.3580895433260594e-06
aF3.3349701880069915e-06
aF3.3349701880069915e-06
aF3.3349701880069915e-06
aF3.3118508326879237e-06
aF3.3118508326879237e-06
aF3.3118508326879237e-06
aF3.3118508326879237e-06
aF3.3118508326879237e-06
aF3.3118508326879237e-06
aF3.2887314773688558e-06
aF3.2887314773688558e-06
aF3.2887314773688558e-06
aF3.2887314773688558e-06
aF3.2887314773688558e-06
aF3.2887314773688558e-06
aF3.2887314773688558e-06
aF3.265612122049788e-06
aF3.265612122049788e-06
aF3.265612122049788e-06
aF3.265612122049788e-06
aF3.265612122049788e-06
aF3.265612122049788e-06
aF3.265612122049788e-06
aF3.265612122049788e-06
aF3.2540524443902541e-06
aF3.207813506378443e-06
aF3.207813506378443e-06
aF3.207813506378443e-06
aF3.207813506378443e-06
aF3.207813506378443e-06
aF3.207813506378443e-06
aF3.207813506378443e-06
aF3.207813506378443e-06
aF3.207813506378443e-06
aF3.207813506378443e-06
aF3.207813506378443e-06
aF3.207813506378443e-06
aF3.207813506378443e-06
aF3.207813506378443e-06
aF3.1615747957403073e-06
aF3.1384554404212395e-06
aF3.1384554404212395e-06
aF3.1153360851021716e-06
aF3.1153360851021716e-06
aF3.1153360851021716e-06
aF3.1153360851021716e-06
aF3.1153360851021716e-06
aF3.1153360851021716e-06
aF3.1153360851021716e-06
aF3.1153360851021716e-06
aF3.1153360851021716e-06
aF3.1153360851021716e-06
aF3.1153360851021716e-06
aF3.1153360851021716e-06
aF3.1153360851021716e-06
aF3.1153360851021716e-06
aF3.0922167297831038e-06
aF3.0922167297831038e-06
aF3.0922167297831038e-06
aF3.0922167297831038e-06
aF3.0922167297831038e-06
aF3.0922167297831038e-06
aF3.0922167297831038e-06
aF3.0922167297831038e-06
aF3.0922167297831038e-06
aF3.0922167297831038e-06
aF3.0459780191449681e-06
aF3.0459780191449681e-06
aF3.0459780191449681e-06
aF3.0459780191449681e-06
aF3.0228586638259003e-06
aF3.0228586638259003e-06
aF3.0228586638259003e-06
aF3.0459780191449681e-06
aF3.0459780191449681e-06
aF3.0459780191449681e-06
aF3.0459780191449681e-06
aF3.0459780191449681e-06
aF3.0459780191449681e-06
aF3.0459780191449681e-06
aF3.0459780191449681e-06
aF3.0459780191449681e-06
aF3.0459780191449681e-06
aF3.0459780191449681e-06
aF3.0459780191449681e-06
aF3.0228586638259003e-06
aF2.9997393085068325e-06
aF2.9766197258140892e-06
aF2.9766197258140892e-06
aF2.9535003704950213e-06
aF2.9303810151759535e-06
aF2.9072616598568857e-06
aF2.8841423045378178e-06
aF2.8841423045378178e-06
aF2.8841423045378178e-06
aF2.8841423045378178e-06
aF2.8841423045378178e-06
aF2.8841423045378178e-06
aF2.8841423045378178e-06
aF2.86102294921875e-06
aF2.86102294921875e-06
aF2.8379035938996822e-06
aF2.8379035938996822e-06
aF2.8379035938996822e-06
aF2.8379035938996822e-06
aF2.8147842385806143e-06
aF2.7916648832615465e-06
aF2.7916648832615465e-06
aF2.7916648832615465e-06
aF2.7685455279424787e-06
aF2.7685455279424787e-06
aF2.7685455279424787e-06
aF2.7685455279424787e-06
aF2.7685455279424787e-06
aF2.7685455279424787e-06
aF2.7685455279424787e-06
aF2.7685455279424787e-06
aF2.7685455279424787e-06
aF2.7685455279424787e-06
aF2.7685455279424787e-06
aF2.7685455279424787e-06
aF2.7685455279424787e-06
aF2.7454261726234108e-06
aF2.7454261726234108e-06
aF2.7223065899306675e-06
aF2.6991872346115997e-06
aF2.6760678792925319e-06
aF2.6760678792925319e-06
aF2.6760678792925319e-06
aF2.6760678792925319e-06
aF2.6760678792925319e-06
aF2.6760678792925319e-06
aF2.6760678792925319e-06
aF2.6760678792925319e-06
aF2.652948523973464e-06
aF2.652948523973464e-06
aF2.652948523973464e-06
aF2.652948523973464e-06
aF2.6298291686543962e-06
aF2.6298291686543962e-06
aF2.6298291686543962e-06
aF2.6298291686543962e-06
aF2.6067098133353284e-06
aF2.6067098133353284e-06
aF2.6067098133353284e-06
aF2.6067098133353284e-06
aF2.6067098133353284e-06
aF2.6067098133353284e-06
aF2.6067098133353284e-06
aF2.6067098133353284e-06
aF2.6067098133353284e-06
aF2.6067098133353284e-06
aF2.6067098133353284e-06
aF2.6067098133353284e-06
aF2.6067098133353284e-06
aF2.6067098133353284e-06
aF2.5835904580162605e-06
aF2.5835904580162605e-06
aF2.5835904580162605e-06
aF2.5835904580162605e-06
aF2.5604711026971927e-06
aF2.5604711026971927e-06
aF2.5604711026971927e-06
aF2.5604711026971927e-06
aF2.5604711026971927e-06
aF2.5604711026971927e-06
aF2.5604711026971927e-06
aF2.5489114250376588e-06
aF2.5257920697185909e-06
aF2.5257920697185909e-06
aF2.5026724870258477e-06
aF2.5026724870258477e-06
aF2.4795531317067798e-06
aF2.4795531317067798e-06
aF2.4795531317067798e-06
aF2.4795531317067798e-06
aF2.4795531317067798e-06
aF2.4795531317067798e-06
aF2.4795531317067798e-06
aF2.4795531317067798e-06
aF2.4795531317067798e-06
aF2.4911128093663137e-06
aF2.4679934540472459e-06
aF2.4679934540472459e-06
aF2.4679934540472459e-06
aF2.4679934540472459e-06
aF2.4679934540472459e-06
aF2.4679934540472459e-06
aF2.4679934540472459e-06
aF2.4679934540472459e-06
aF2.4448740987281781e-06
aF2.4448740987281781e-06
aF2.4448740987281781e-06
aF2.4448740987281781e-06
aF2.4448740987281781e-06
aF2.4333144210686442e-06
aF2.4333144210686442e-06
aF2.4333144210686442e-06
aF2.3870757104305085e-06
aF2.3639563551114406e-06
aF2.3639563551114406e-06
aF2.3639563551114406e-06
aF2.3639563551114406e-06
aF2.3408369997923728e-06
aF2.2945982891542371e-06
aF2.2945982891542371e-06
aF2.2945982891542371e-06
aF2.2945982891542371e-06
aF2.2945982891542371e-06
aF2.2945982891542371e-06
aF2.2714789338351693e-06
aF2.2714789338351693e-06
aF2.2714789338351693e-06
aF2.2714789338351693e-06
aF2.2714789338351693e-06
aF2.2714789338351693e-06
aF2.2714789338351693e-06
aF2.2714789338351693e-06
aF2.2714789338351693e-06
aF2.2945982891542371e-06
aF2.2945982891542371e-06
aF2.2945982891542371e-06
aF2.2945982891542371e-06
aF2.2945982891542371e-06
aF2.2888184503244702e-06
aF2.2888184503244702e-06
aF2.2888184503244702e-06
aF2.2888184503244702e-06
aF2.2888184503244702e-06
aF2.2888184503244702e-06
aF2.2656990950054023e-06
aF2.2425795123126591e-06
aF2.2425795123126591e-06
aF2.2425795123126591e-06
aF2.2194601569935912e-06
aF2.2194601569935912e-06
aF2.2194601569935912e-06
aF2.1963408016745234e-06
aF2.1963408016745234e-06
aF2.1963408016745234e-06
aF2.1963408016745234e-06
aF2.1963408016745234e-06
aF2.1963408016745234e-06
aF2.1963408016745234e-06
aF2.1732214463554556e-06
aF2.1501020910363877e-06
aF2.1269827357173199e-06
aF2.103863380398252e-06
aF2.103863380398252e-06
aF2.103863380398252e-06
aF2.103863380398252e-06
aF2.103863380398252e-06
aF2.0807440250791842e-06
aF2.0807440250791842e-06
aF2.0807440250791842e-06
aF2.0807440250791842e-06
aF2.0807440250791842e-06
aF2.0460649921005825e-06
aF2.0460649921005825e-06
aF2.0460649921005825e-06
aF2.0460649921005825e-06
aF2.0460649921005825e-06
aF2.0460649921005825e-06
aF2.0460649921005825e-06
aF2.0460649921005825e-06
aF2.0460649921005825e-06
aF2.0460649921005825e-06
aF2.0460649921005825e-06
aF2.0460649921005825e-06
aF2.0460649921005825e-06
aF2.0460649921005825e-06
aF2.0460649921005825e-06
aF2.0460649921005825e-06
aF2.0460649921005825e-06
aF2.0460649921005825e-06
aF1.9998260540887713e-06
aF1.9998260540887713e-06
aF2.0229454094078392e-06
aF1.9998260540887713e-06
aF1.9998260540887713e-06
aF1.9998260540887713e-06
aF1.9998260540887713e-06
aF1.9998260540887713e-06
aF1.9767066987697035e-06
aF1.9767066987697035e-06
aF1.9767066987697035e-06
aF1.9535873434506357e-06
aF1.9535873434506357e-06
aF1.9535873434506357e-06
aF1.9535873434506357e-06
aF1.9535873434506357e-06
aF1.9535873434506357e-06
aF1.9535873434506357e-06
aF1.9420276657911018e-06
aF1.9420276657911018e-06
aF1.9420276657911018e-06
aF1.9420276657911018e-06
aF1.9189083104720339e-06
aF1.9189083104720339e-06
aF1.9189083104720339e-06
aF1.9189083104720339e-06
aF1.9189083104720339e-06
aF1.9189083104720339e-06
aF1.9189083104720339e-06
aF1.9189083104720339e-06
aF1.9189083104720339e-06
aF1.9189083104720339e-06
aF1.9189083104720339e-06
aF1.9189083104720339e-06
aF1.8957889551529661e-06
aF1.8957889551529661e-06
aF1.8957889551529661e-06
aF1.8957889551529661e-06
aF1.8957889551529661e-06
aF1.8957889551529661e-06
aF1.8957889551529661e-06
aF1.8957889551529661e-06
aF1.8957889551529661e-06
aF1.8957889551529661e-06
aF1.8957889551529661e-06
aF1.8957889551529661e-06
aF1.8726695998338982e-06
aF1.8495502445148304e-06
aF1.8611099221743643e-06
aF1.8379904531684588e-06
aF1.8379904531684588e-06
aF1.8379904531684588e-06
aF1.8379904531684588e-06
aF1.7917517425303231e-06
aF1.8148710978493909e-06
aF1.8148710978493909e-06
aF1.8148710978493909e-06
aF1.8148710978493909e-06
aF1.8148710978493909e-06
aF1.8148710978493909e-06
aF1.8148710978493909e-06
aF1.8148710978493909e-06
aF1.8148710978493909e-06
aF1.8148710978493909e-06
aF1.8148710978493909e-06
aF1.8148710978493909e-06
aF1.803311420189857e-06
aF1.803311420189857e-06
aF1.803311420189857e-06
aF1.803311420189857e-06
aF1.7801920648707892e-06
aF1.7686323872112553e-06
aF1.7686323872112553e-06
aF1.7455130318921874e-06
aF1.7455130318921874e-06
aF1.7455130318921874e-06
aF1.7223935628862819e-06
aF1.7223935628862819e-06
aF1.7223935628862819e-06
aF1.7223935628862819e-06
aF1.7223935628862819e-06
aF1.7223935628862819e-06
aF1.7223935628862819e-06
aF1.7223935628862819e-06
aF1.699274207567214e-06
aF1.699274207567214e-06
aF1.699274207567214e-06
aF1.7223935628862819e-06
aF1.7223935628862819e-06
aF1.699274207567214e-06
aF1.6761548522481462e-06
aF1.6761548522481462e-06
aF1.6530354969290784e-06
aF1.6530354969290784e-06
aF1.6530354969290784e-06
aF1.6299161416100105e-06
aF1.6299161416100105e-06
aF1.6299161416100105e-06
aF1.6299161416100105e-06
aF1.5836773172850371e-06
aF1.5836773172850371e-06
aF1.5836773172850371e-06
aF1.6299161416100105e-06
aF1.5836773172850371e-06
aF1.5836773172850371e-06
aF1.5836773172850371e-06
aF1.6299161416100105e-06
aF1.5605579619659693e-06
aF1.5374386066469015e-06
aF1.5374386066469015e-06
aF1.5374386066469015e-06
aF1.5143192513278336e-06
aF1.5143192513278336e-06
aF1.5143192513278336e-06
aF1.5143192513278336e-06
aF1.5143192513278336e-06
aF1.4911998960087658e-06
aF1.4911998960087658e-06
aF1.4911998960087658e-06
aF1.4911998960087658e-06
aF1.4911998960087658e-06
aF1.4680804270028602e-06
aF1.4680804270028602e-06
aF1.4680804270028602e-06
aF1.4680804270028602e-06
aF1.4449610716837924e-06
aF1.4449610716837924e-06
aF1.4449610716837924e-06
aF1.4218417163647246e-06
aF1.4218417163647246e-06
aF1.4218417163647246e-06
aF1.4218417163647246e-06
aF1.4218417163647246e-06
aF1.3987223610456567e-06
aF1.3987223610456567e-06
aF1.3987223610456567e-06
aF1.3987223610456567e-06
aF1.3987223610456567e-06
aF1.3987223610456567e-06
aF1.3756030057265889e-06
aF1.3756030057265889e-06
aF1.3756030057265889e-06
aF1.3756030057265889e-06
aF1.3756030057265889e-06
aF1.3756030057265889e-06
aF1.3524835367206833e-06
aF1.3524835367206833e-06
aF1.3524835367206833e-06
aF1.3524835367206833e-06
aF1.3524835367206833e-06
aF1.3524835367206833e-06
aF1.3524835367206833e-06
aF1.3524835367206833e-06
aF1.3293641814016155e-06
aF1.3293641814016155e-06
aF1.3293641814016155e-06
aF1.3293641814016155e-06
aF1.3062448260825477e-06
aF1.3062448260825477e-06
aF1.3062448260825477e-06
aF1.3062448260825477e-06
aF1.3062448260825477e-06
aF1.3062448260825477e-06
aF1.3062448260825477e-06
aF1.3062448260825477e-06
aF1.3062448260825477e-06
aF1.3062448260825477e-06
aF1.2946851484230137e-06
aF1.2715657931039459e-06
aF1.2715657931039459e-06
aF1.2715657931039459e-06
aF1.2715657931039459e-06
aF1.2715657931039459e-06
aF1.2715657931039459e-06
aF1.2715657931039459e-06
aF1.2715657931039459e-06
aF1.2715657931039459e-06
aF1.2484463240980403e-06
aF1.2484463240980403e-06
aF1.2484463240980403e-06
aF1.2484463240980403e-06
aF1.2253269687789725e-06
aF1.2253269687789725e-06
aF1.2253269687789725e-06
aF1.2484463240980403e-06
aF1.2484463240980403e-06
aF1.2484463240980403e-06
aF1.2484463240980403e-06
aF1.2253269687789725e-06
aF1.2253269687789725e-06
aF1.2253269687789725e-06
aF1.2253269687789725e-06
aF1.2253269687789725e-06
aF1.2253269687789725e-06
aF1.2253269687789725e-06
aF1.2253269687789725e-06
aF1.2022076134599047e-06
aF1.2022076134599047e-06
aF1.1790882581408368e-06
aF1.1790882581408368e-06
aF1.1790882581408368e-06
aF1.1790882581408368e-06
aF1.155968902821769e-06
aF1.155968902821769e-06
aF1.155968902821769e-06
aF1.155968902821769e-06
aF1.155968902821769e-06
aF1.155968902821769e-06
aF1.155968902821769e-06
aF1.1675285804813029e-06
aF1.1675285804813029e-06
aF1.1675285804813029e-06
aF1.1675285804813029e-06
aF1.1675285804813029e-06
aF1.1675285804813029e-06
aF1.1675285804813029e-06
aF1.1444092251622351e-06
aF1.1444092251622351e-06
aF1.1212897561563295e-06
aF1.1212897561563295e-06
aF1.0981704008372617e-06
aF1.0981704008372617e-06
aF1.0981704008372617e-06
aF1.0981704008372617e-06
aF1.0981704008372617e-06
aF1.0981704008372617e-06
aF1.0981704008372617e-06
aF1.0981704008372617e-06
aF1.0866107231777278e-06
aF1.0866107231777278e-06
aF1.0866107231777278e-06
aF1.0866107231777278e-06
aF1.0866107231777278e-06
aF1.0866107231777278e-06
aF1.0981704008372617e-06
aF1.0981704008372617e-06
aF1.0981704008372617e-06
aF1.0981704008372617e-06
aF1.0981704008372617e-06
aF1.0981704008372617e-06
aF1.0981704008372617e-06
aF1.0981704008372617e-06
aF1.0981704008372617e-06
aF1.0981704008372617e-06
aF1.0981704008372617e-06
aF1.0981704008372617e-06
aF1.1212897561563295e-06
aF1.1212897561563295e-06
aF1.1212897561563295e-06
aF1.0750510455181939e-06
aF1.0750510455181939e-06
aF1.0866107231777278e-06
aF1.0866107231777278e-06
aF1.0634913678586599e-06
aF1.0634913678586599e-06
aF1.0403720125395921e-06
aF1.0172526572205243e-06
aF1.0172526572205243e-06
aF9.9413318821461871e-07
aF9.9413318821461871e-07
aF9.9413318821461871e-07
aF9.7101383289555088e-07
aF9.7101383289555088e-07
aF9.9413318821461871e-07
aF9.9413318821461871e-07
aF9.7101383289555088e-07
aF9.7101383289555088e-07
aF9.9413318821461871e-07
aF9.9413318821461871e-07
aF9.9413318821461871e-07
aF9.9413318821461871e-07
aF9.9413318821461871e-07
aF1.0172526572205243e-06
aF9.9413318821461871e-07
aF1.0172526572205243e-06
aF9.9413318821461871e-07
aF9.9413318821461871e-07
aF9.7101383289555088e-07
aF9.9413318821461871e-07
aF9.9413318821461871e-07
aF9.9413318821461871e-07
aF9.9413318821461871e-07
aF9.9413318821461871e-07
aF1.0172526572205243e-06
aF9.9413318821461871e-07
aF9.4789447757648304e-07
aF9.2477512225741521e-07
aF9.0165571009492851e-07
aF9.2477512225741521e-07
aF9.4789447757648304e-07
aF9.2477512225741521e-07
aF9.4789447757648304e-07
aF9.0165571009492851e-07
aF9.0165571009492851e-07
aF9.2477512225741521e-07
aF9.2477512225741521e-07
aF9.2477512225741521e-07
aF9.2477512225741521e-07
aF9.2477512225741521e-07
aF9.0165571009492851e-07
aF9.0165571009492851e-07
aF9.0165571009492851e-07
aF9.0165571009492851e-07
aF9.0165571009492851e-07
aF9.0165571009492851e-07
aF9.0165571009492851e-07
aF9.0165571009492851e-07
aF8.7853635477586067e-07
aF8.7853635477586067e-07
aF8.5541694261337398e-07
aF8.3229758729430614e-07
aF8.3229758729430614e-07
aF8.091782319752383e-07
aF8.5541694261337398e-07
aF8.3229758729430614e-07
aF8.091782319752383e-07
aF8.091782319752383e-07
aF8.091782319752383e-07
aF7.6293946449368377e-07
aF7.8605881981275161e-07
aF7.6293946449368377e-07
aF8.091782319752383e-07
aF7.6293946449368377e-07
aF7.3982005233119708e-07
aF7.3982005233119708e-07
aF7.6293946449368377e-07
aF7.3982005233119708e-07
aF7.3982005233119708e-07
aF7.8605881981275161e-07
aF8.091782319752383e-07
aF7.8605881981275161e-07
aF7.6293946449368377e-07
aF7.3982005233119708e-07
aF7.3982005233119708e-07
aF7.6293946449368377e-07
aF7.3982005233119708e-07
aF7.6293946449368377e-07
aF7.3982005233119708e-07
aF7.3982005233119708e-07
aF7.8605881981275161e-07
aF7.3982005233119708e-07
aF7.3982005233119708e-07
aF7.6293946449368377e-07
aF7.6293946449368377e-07
aF7.6293946449368377e-07
aF7.3982005233119708e-07
aF7.3982005233119708e-07
aF7.6293946449368377e-07
aF7.3982005233119708e-07
aF7.1670069701212924e-07
aF7.1670069701212924e-07
aF7.1670069701212924e-07
aF7.1670069701212924e-07
aF7.6293946449368377e-07
aF7.1670069701212924e-07
aF6.935813416930614e-07
aF6.935813416930614e-07
aF6.935813416930614e-07
aF7.1670069701212924e-07
aF6.7046192953057471e-07
aF6.7046192953057471e-07
aF7.1670069701212924e-07
aF6.7046192953057471e-07
aF6.935813416930614e-07
aF7.1670069701212924e-07
aF6.935813416930614e-07
aF6.7046192953057471e-07
aF6.7046192953057471e-07
aF6.935813416930614e-07
aF7.1670069701212924e-07
aF7.1670069701212924e-07
aF6.7046192953057471e-07
aF6.7046192953057471e-07
aF6.7046192953057471e-07
aF6.7046192953057471e-07
aF6.7046192953057471e-07
aF6.935813416930614e-07
aF6.7046192953057471e-07
aF6.7046192953057471e-07
aF6.4734257421150687e-07
aF6.3578289655197295e-07
aF6.1266348438948626e-07
aF6.1266348438948626e-07
aF6.1266348438948626e-07
aF5.8954412907041842e-07
aF5.8954412907041842e-07
aF5.6642477375135059e-07
aF5.4330536158886389e-07
aF5.2018600626979605e-07
aF5.2018600626979605e-07
aF5.2018600626979605e-07
aF5.0862632861026214e-07
aF5.0862632861026214e-07
aF5.0862632861026214e-07
aF5.0862632861026214e-07
aF5.0862632861026214e-07
aF5.0862632861026214e-07
aF5.0862632861026214e-07
aF5.0862632861026214e-07
aF5.0862632861026214e-07
aF5.0862632861026214e-07
aF5.0862632861026214e-07
aF5.0862632861026214e-07
aF5.0862632861026214e-07
aF5.2018600626979605e-07
aF4.7394723878824152e-07
aF4.7394723878824152e-07
aF4.9706659410730936e-07
aF5.2018600626979605e-07
aF4.7394723878824152e-07
aF4.9706659410730936e-07
aF5.2018600626979605e-07
aF4.9706659410730936e-07
aF4.7394723878824152e-07
aF4.8550691644777544e-07
aF5.0862632861026214e-07
aF4.9706659410730936e-07
aF4.7394723878824152e-07
aF4.7394723878824152e-07
aF4.7394723878824152e-07
aF4.9706659410730936e-07
aF4.8550691644777544e-07
aF4.8550691644777544e-07
aF5.0862632861026214e-07
aF4.8550691644777544e-07
aF4.8550691644777544e-07
aF4.7394723878824152e-07
aF4.7394723878824152e-07
aF4.9706659410730936e-07
aF4.7394723878824152e-07
aF4.7394723878824152e-07
aF4.7394723878824152e-07
aF4.7394723878824152e-07
aF4.5082785504746425e-07
aF4.5082785504746425e-07
aF4.5082785504746425e-07
aF4.5082785504746425e-07
aF4.5082785504746425e-07
aF4.5082785504746425e-07
aF4.5082785504746425e-07
aF4.5082785504746425e-07
aF4.5082785504746425e-07
aF4.5082785504746425e-07
aF4.5082785504746425e-07
aF4.5082785504746425e-07
aF4.5082785504746425e-07
aF4.5082785504746425e-07
aF4.5082785504746425e-07
aF4.5082785504746425e-07
aF4.5082785504746425e-07
aF4.5082785504746425e-07
aF4.5082785504746425e-07
aF4.5082785504746425e-07
aF4.5082785504746425e-07
aF4.5082785504746425e-07
aF4.5082785504746425e-07
aF4.5082785504746425e-07
aF4.5082785504746425e-07
aF4.5082785504746425e-07
aF4.5082785504746425e-07
aF4.5082785504746425e-07
aF4.5082785504746425e-07
aF4.5082785504746425e-07
aF4.5082785504746425e-07
aF4.5082785504746425e-07
aF4.5082785504746425e-07
aF4.5082785504746425e-07
aF4.5082785504746425e-07
aF4.5082785504746425e-07
aF4.5082785504746425e-07
aF4.5082785504746425e-07
aF4.5082785504746425e-07
aF4.5082785504746425e-07
aF4.5082785504746425e-07
aF4.5082785504746425e-07
aF4.5082785504746425e-07
aF4.5082785504746425e-07
aF4.2770847130668699e-07
aF4.2770847130668699e-07
aF4.2770847130668699e-07
aF4.2770847130668699e-07
aF4.2770847130668699e-07
aF4.2770847130668699e-07
aF4.2770847130668699e-07
aF4.2770847130668699e-07
aF4.2770847130668699e-07
aF4.2770847130668699e-07
aF4.2770847130668699e-07
aF4.2770847130668699e-07
aF4.0458911598761915e-07
aF4.0458911598761915e-07
aF4.0458911598761915e-07
aF4.0458911598761915e-07
aF3.8146973224684189e-07
aF3.8146973224684189e-07
aF4.0458911598761915e-07
aF3.5835034850606462e-07
aF3.5835034850606462e-07
aF3.8146973224684189e-07
aF3.8146973224684189e-07
aF3.8146973224684189e-07
aF3.8146973224684189e-07
aF3.8146973224684189e-07
aF3.8146973224684189e-07
aF3.8146973224684189e-07
aF3.5835034850606462e-07
aF3.5835034850606462e-07
aF3.5835034850606462e-07
aF3.3523096476528735e-07
aF3.3523096476528735e-07
aF3.5835034850606462e-07
aF3.3523096476528735e-07
aF3.8146973224684189e-07
aF3.3523096476528735e-07
aF3.5835034850606462e-07
aF3.1211158102451009e-07
aF3.5835034850606462e-07
aF3.5835034850606462e-07
aF3.3523096476528735e-07
aF3.5835034850606462e-07
aF3.3523096476528735e-07
aF3.3523096476528735e-07
aF3.5835034850606462e-07
aF3.3523096476528735e-07
aF3.1211158102451009e-07
aF3.5835034850606462e-07
aF3.1211158102451009e-07
aF3.1211158102451009e-07
aF2.6587284196466499e-07
aF2.4275345822388772e-07
aF2.6587284196466499e-07
aF2.6587284196466499e-07
aF2.4275345822388772e-07
aF2.6587284196466499e-07
aF2.6587284196466499e-07
aF2.4275345822388772e-07
aF2.6587284196466499e-07
aF2.4275345822388772e-07
aF2.4275345822388772e-07
aF2.8899222570544225e-07
aF2.4275345822388772e-07
aF2.4275345822388772e-07
aF2.8899222570544225e-07
aF2.4275345822388772e-07
aF2.4275345822388772e-07
aF2.8899222570544225e-07
aF2.4275345822388772e-07
aF2.4275345822388772e-07
aF2.8899222570544225e-07
aF2.4275345822388772e-07
aF2.4275345822388772e-07
aF2.6587284196466499e-07
aF2.6587284196466499e-07
aF2.4275345822388772e-07
aF2.6587284196466499e-07
aF2.4275345822388772e-07
aF2.6587284196466499e-07
aF2.6587284196466499e-07
aF2.4275345822388772e-07
aF2.4275345822388772e-07
aF2.8899222570544225e-07
aF2.4275345822388772e-07
aF2.4275345822388772e-07
aF2.6587284196466499e-07
aF2.4275345822388772e-07
aF2.6587284196466499e-07
aF2.6587284196466499e-07
aF2.4275345822388772e-07
aF2.311937805643538e-07
aF2.5431316430513107e-07
aF2.311937805643538e-07
aF2.1963408869396517e-07
aF2.4275345822388772e-07
aF2.5431316430513107e-07
aF2.1963408869396517e-07
aF2.4275345822388772e-07
aF2.4275345822388772e-07
aF2.4275345822388772e-07
aF2.4275345822388772e-07
aF2.1963408869396517e-07
aF2.1963408869396517e-07
aF2.1963408869396517e-07
aF2.4275345822388772e-07
aF2.4275345822388772e-07
aF2.4275345822388772e-07
aF2.1963408869396517e-07
aF1.965147049531879e-07
aF2.4275345822388772e-07
aF1.965147049531879e-07
aF1.965147049531879e-07
aF2.1963408869396517e-07
aF2.1963408869396517e-07
aF1.965147049531879e-07
aF2.4275345822388772e-07
aF2.1963408869396517e-07
aF1.965147049531879e-07
aF2.1963408869396517e-07
aF1.7339533542326535e-07
aF2.1963408869396517e-07
aF2.1963408869396517e-07
aF2.4275345822388772e-07
aF1.965147049531879e-07
aF1.965147049531879e-07
aF1.7339533542326535e-07
aF2.1963408869396517e-07
aF1.7339533542326535e-07
aF1.965147049531879e-07
aF1.7339533542326535e-07
aF1.7339533542326535e-07
aF1.7339533542326535e-07
aF1.965147049531879e-07
aF1.965147049531879e-07
aF1.5027595168248808e-07
aF1.5027595168248808e-07
aF2.1963408869396517e-07
aF1.5027595168248808e-07
aF1.5027595168248808e-07
aF1.7339533542326535e-07
aF1.5027595168248808e-07
aF1.5027595168248808e-07
aF1.5027595168248808e-07
aF1.5027595168248808e-07
aF1.7339533542326535e-07
aF1.5027595168248808e-07
aF1.965147049531879e-07
aF1.7339533542326535e-07
aF1.7339533542326535e-07
aF1.5027595168248808e-07
aF1.7339533542326535e-07
aF1.5027595168248808e-07
aF1.3871625981209945e-07
aF1.7339533542326535e-07
aF1.6183564355287672e-07
aF1.965147049531879e-07
aF1.7339533542326535e-07
aF1.5027595168248808e-07
aF1.3871625981209945e-07
aF1.3871625981209945e-07
aF1.7339533542326535e-07
aF1.3871625981209945e-07
aF1.5027595168248808e-07
aF1.5027595168248808e-07
aF1.6183564355287672e-07
aF1.3871625981209945e-07
aF1.8495501308279927e-07
aF1.5027595168248808e-07
aF1.3871625981209945e-07
aF1.3871625981209945e-07
aF1.6183564355287672e-07
aF1.6183564355287672e-07
aF1.3871625981209945e-07
aF1.3871625981209945e-07
aF1.6183564355287672e-07
aF1.3871625981209945e-07
aF1.3871625981209945e-07
aF1.3871625981209945e-07
aF1.3871625981209945e-07
aF1.6183564355287672e-07
aF1.6183564355287672e-07
aF1.3871625981209945e-07
aF1.3871625981209945e-07
aF1.3871625981209945e-07
aF1.6183564355287672e-07
aF1.3871625981209945e-07
aF1.3871625981209945e-07
aF1.3871625981209945e-07
aF1.3871625981209945e-07
aF1.3871625981209945e-07
aF1.3871625981209945e-07
aF1.3871625981209945e-07
aF1.3871625981209945e-07
aF1.3871625981209945e-07
aF1.3871625981209945e-07
aF1.6183564355287672e-07
aF1.3871625981209945e-07
aF1.3871625981209945e-07
aF1.3871625981209945e-07
aF1.3871625981209945e-07
aF1.3871625981209945e-07
aF1.6183564355287672e-07
aF1.3871625981209945e-07
aF1.3871625981209945e-07
aF1.3871625981209945e-07
aF1.3871625981209945e-07
aF1.3871625981209945e-07
aF1.3871625981209945e-07
aF1.155968902821769e-07
aF1.155968902821769e-07
aF1.3871625981209945e-07
aF1.3871625981209945e-07
aF1.3871625981209945e-07
aF9.2477506541399634e-08
aF1.155968902821769e-07
aF1.155968902821769e-07
aF1.3871625981209945e-07
aF1.155968902821769e-07
aF1.155968902821769e-07
aF9.2477506541399634e-08
aF1.155968902821769e-07
aF1.3871625981209945e-07
aF9.2477506541399634e-08
aF1.155968902821769e-07
aF1.155968902821769e-07
aF1.155968902821769e-07
asS'valid'
p6
(lp7
F1.6383881568908691
aF1.4552735090255737
aF1.4586819410324097
aF1.2549362182617188
aF1.1231890916824341
aF1.0975821018218994
aF1.0439196825027466
aF1.000816822052002
aF0.96912914514541626
aF0.94535738229751587
aF0.92789596319198608
aF0.91875660419464111
aF0.91404801607131958
aF0.91403299570083618
aF0.91854965686798096
aF0.92337465286254883
aF0.92493772506713867
aF0.91374427080154419
aF0.89235305786132812
aF0.86628448963165283
aF0.84141349792480469
aF0.82953125238418579
aF0.83428764343261719
aF0.85116583108901978
aF0.86927729845046997
aF0.87732356786727905
aF0.86869931221008301
aF0.84617334604263306
aF0.81844747066497803
aF0.79609709978103638
aF0.78189319372177124
aF0.77515143156051636
aF0.77399528026580811
aF0.77434045076370239
aF0.77523857355117798
aF0.77520698308944702
aF0.77419841289520264
aF0.77178740501403809
aF0.76910102367401123
aF0.76675254106521606
aF0.76510888338088989
aF0.7644038200378418
aF0.76418089866638184
aF0.76355063915252686
aF0.76354265213012695
aF0.7634766697883606
aF0.7636527419090271
aF0.76338744163513184
aF0.76362067461013794
aF0.76426178216934204
aF0.76494956016540527
aF0.76537281274795532
aF0.76621240377426147
aF0.76695644855499268
aF0.7681393027305603
aF0.76883953809738159
aF0.7694588303565979
aF0.77150207757949829
aF0.77208662033081055
aF0.77334243059158325
aF0.77517157793045044
aF0.77672851085662842
aF0.77772223949432373
aF0.77928543090820312
aF0.78076386451721191
aF0.78232371807098389
aF0.78413271903991699
aF0.78534728288650513
aF0.78725695610046387
aF0.78917509317398071
aF0.79098290205001831
aF0.79224991798400879
aF0.79460322856903076
aF0.79640835523605347
aF0.79783123731613159
aF0.79993706941604614
aF0.80174905061721802
aF0.80364304780960083
aF0.80565154552459717
aF0.80761575698852539
aF0.80928349494934082
aF0.81136578321456909
aF0.81377100944519043
aF0.81498873233795166
aF0.81733793020248413
aF0.81964766979217529
aF0.82096189260482788
aF0.82330554723739624
aF0.82509654760360718
aF0.82697218656539917
aF0.82920467853546143
aF0.83113294839859009
aF0.83296394348144531
aF0.83488047122955322
aF0.83730417490005493
aF0.83898663520812988
aF0.84090089797973633
aF0.84280270338058472
aF0.84521090984344482
aF0.84669768810272217
aF0.84878337383270264
aF0.85093867778778076
aF0.85302048921585083
aF0.85493940114974976
aF0.85656201839447021
aF0.85890007019042969
aF0.86036121845245361
aF0.86262023448944092
aF0.86441260576248169
aF0.86618578433990479
aF0.86829227209091187
aF0.87009316682815552
aF0.87245070934295654
aF0.87364375591278076
aF0.87636631727218628
aF0.87754362821578979
aF0.88002091646194458
aF0.88144469261169434
aF0.88335001468658447
aF0.88526624441146851
aF0.88731276988983154
aF0.8887513279914856
aF0.89097034931182861
aF0.89259415864944458
aF0.89432781934738159
aF0.89643329381942749
aF0.89797210693359375
aF0.89998024702072144
aF0.90149766206741333
aF0.90350234508514404
aF0.90531700849533081
aF0.906951904296875
aF0.90850251913070679
aF0.91097205877304077
aF0.91181021928787231
aF0.91430509090423584
aF0.91552388668060303
aF0.9176170825958252
aF0.91881108283996582
aF0.92134195566177368
aF0.92222404479980469
aF0.92440640926361084
aF0.92612558603286743
aF0.92761868238449097
aF0.92926818132400513
aF0.93108087778091431
aF0.93274307250976562
aF0.93431472778320312
aF0.9361720085144043
aF0.9377213716506958
aF0.93915700912475586
aF0.94101601839065552
aF0.94245725870132446
aF0.94416606426239014
aF0.94579148292541504
aF0.94772714376449585
aF0.94874149560928345
aF0.95079392194747925
aF0.95202749967575073
aF0.95396536588668823
aF0.95509862899780273
aF0.95716357231140137
aF0.95815938711166382
aF0.9602932333946228
aF0.9616093635559082
aF0.96302872896194458
aF0.96455276012420654
aF0.96627604961395264
aF0.96785980463027954
aF0.96925979852676392
aF0.9708980917930603
aF0.97237426042556763
aF0.97348541021347046
aF0.97550618648529053
aF0.97656667232513428
aF0.97846251726150513
aF0.97968137264251709
aF0.98137450218200684
aF0.982616126537323
aF0.98420727252960205
aF0.98552983999252319
aF0.98698312044143677
aF0.98863142728805542
aF0.98991113901138306
aF0.99138933420181274
aF0.9929649829864502
aF0.99397742748260498
aF0.99595034122467041
aF0.99697083234786987
aF0.99879199266433716
aF0.99961954355239868
aF1.0016793012619019
aF1.0023924112319946
aF1.0043565034866333
aF1.0053757429122925
aF1.0071924924850464
aF1.0080364942550659
aF1.0098576545715332
aF1.010890007019043
aF1.0124802589416504
aF1.0138776302337646
aF1.0150109529495239
aF1.0166493654251099
aF1.0178967714309692
aF1.0192190408706665
aF1.0204331874847412
aF1.0217328071594238
aF1.0232259035110474
aF1.0245178937911987
aF1.0259619951248169
aF1.0271345376968384
aF1.0285223722457886
aF1.0298320055007935
aF1.0311211347579956
aF1.0324313640594482
aF1.0336688756942749
aF1.0350964069366455
aF1.036264181137085
aF1.0377998352050781
aF1.0388948917388916
aF1.0403140783309937
aF1.0415692329406738
aF1.0426766872406006
aF1.0441559553146362
aF1.0452347993850708
aF1.046552300453186
aF1.0478625297546387
aF1.0491747856140137
aF1.0502798557281494
aF1.0517059564590454
aF1.0528386831283569
aF1.0540493726730347
aF1.0555944442749023
aF1.0565098524093628
aF1.0578641891479492
aF1.0590612888336182
aF1.0603135824203491
aF1.0615935325622559
aF1.0627546310424805
aF1.0640512704849243
aF1.0652821063995361
aF1.0663846731185913
aF1.0677847862243652
aF1.0687676668167114
aF1.0702484846115112
aF1.0710573196411133
aF1.0727756023406982
aF1.0737539529800415
aF1.0747500658035278
aF1.0762373208999634
aF1.0771398544311523
aF1.0785791873931885
aF1.0797390937805176
aF1.0807758569717407
aF1.0821079015731812
aF1.0830793380737305
aF1.0845514535903931
aF1.085279107093811
aF1.0869359970092773
aF1.0877232551574707
aF1.0891931056976318
aF1.0901347398757935
aF1.0913617610931396
aF1.0923383235931396
aF1.0937504768371582
aF1.094834566116333
aF1.0957952737808228
aF1.0971130132675171
aF1.0983573198318481
aF1.0992989540100098
aF1.1004220247268677
aF1.1017842292785645
aF1.1027840375900269
aF1.1040483713150024
aF1.1051102876663208
aF1.1061223745346069
aF1.1075297594070435
aF1.1083434820175171
aF1.1096131801605225
aF1.1105183362960815
aF1.1119338274002075
aF1.1129549741744995
aF1.1138707399368286
aF1.115263819694519
aF1.1161395311355591
aF1.1174527406692505
aF1.118516206741333
aF1.1195517778396606
aF1.1207523345947266
aF1.1216833591461182
aF1.1229463815689087
aF1.1237918138504028
aF1.1249539852142334
aF1.1262320280075073
aF1.1271344423294067
aF1.1283376216888428
aF1.1293317079544067
aF1.1306122541427612
aF1.1314033269882202
aF1.1325525045394897
aF1.1337394714355469
aF1.1346626281738281
aF1.1358612775802612
aF1.1368597745895386
aF1.1379163265228271
aF1.1390408277511597
aF1.1400710344314575
aF1.1411851644515991
aF1.1421629190444946
aF1.1432853937149048
aF1.144431471824646
aF1.1453264951705933
aF1.1463721990585327
aF1.1475166082382202
aF1.1484856605529785
aF1.149810791015625
aF1.1504596471786499
aF1.1516941785812378
aF1.152693510055542
aF1.1537817716598511
aF1.1548537015914917
aF1.1559876203536987
aF1.1568467617034912
aF1.1578912734985352
aF1.1589779853820801
aF1.1598761081695557
aF1.1611148118972778
aF1.1619690656661987
aF1.1629668474197388
aF1.164276123046875
aF1.1648977994918823
aF1.1661888360977173
aF1.1671563386917114
aF1.1681064367294312
aF1.1692115068435669
aF1.1700106859207153
aF1.1714060306549072
aF1.1720763444900513
aF1.1732603311538696
aF1.1742688417434692
aF1.1751502752304077
aF1.1762219667434692
aF1.1773310899734497
aF1.1782102584838867
aF1.1793107986450195
aF1.1801108121871948
aF1.1814178228378296
aF1.1820951700210571
aF1.1834286451339722
aF1.1841336488723755
aF1.1852549314498901
aF1.1863013505935669
aF1.1870671510696411
aF1.1883223056793213
aF1.1890715360641479
aF1.1904760599136353
aF1.191129207611084
aF1.1920319795608521
aF1.1933451890945435
aF1.1939936876296997
aF1.1952668428421021
aF1.1960675716400146
aF1.1972007751464844
aF1.1979426145553589
aF1.1991850137710571
aF1.2000998258590698
aF1.201080322265625
aF1.2018194198608398
aF1.2029358148574829
aF1.2037924528121948
aF1.2050507068634033
aF1.2057932615280151
aF1.2067818641662598
aF1.2078638076782227
aF1.2086626291275024
aF1.2098031044006348
aF1.2106697559356689
aF1.2116554975509644
aF1.2124737501144409
aF1.2137045860290527
aF1.2144173383712769
aF1.2155411243438721
aF1.2163968086242676
aF1.2173910140991211
aF1.2183623313903809
aF1.2191792726516724
aF1.2201942205429077
aF1.2213172912597656
aF1.2220907211303711
aF1.2231398820877075
aF1.224132776260376
aF1.2247847318649292
aF1.2260811328887939
aF1.2266995906829834
aF1.2278724908828735
aF1.228690505027771
aF1.2296737432479858
aF1.2306920289993286
aF1.2314399480819702
aF1.2326596975326538
aF1.2333730459213257
aF1.2343850135803223
aF1.2353979349136353
aF1.2362037897109985
aF1.2373497486114502
aF1.2380475997924805
aF1.2389712333679199
aF1.2400041818618774
aF1.2409003973007202
aF1.2418084144592285
aF1.2428230047225952
aF1.2435884475708008
aF1.2446777820587158
aF1.2455410957336426
aF1.2465907335281372
aF1.247376561164856
aF1.2483575344085693
aF1.2492163181304932
aF1.2501050233840942
aF1.2511876821517944
aF1.25199294090271
aF1.2530087232589722
aF1.2538418769836426
aF1.2549041509628296
aF1.2556359767913818
aF1.2566384077072144
aF1.2575418949127197
aF1.2583922147750854
aF1.2593985795974731
aF1.2604285478591919
aF1.2610588073730469
aF1.26209557056427
aF1.2630246877670288
aF1.26389479637146
aF1.2647644281387329
aF1.2657674551010132
aF1.2666394710540771
aF1.2674685716629028
aF1.2685132026672363
aF1.2693513631820679
aF1.2702591419219971
aF1.2713044881820679
aF1.2719146013259888
aF1.2729880809783936
aF1.2739168405532837
aF1.2747223377227783
aF1.2756459712982178
aF1.2766379117965698
aF1.2773714065551758
aF1.2784876823425293
aF1.2792865037918091
aF1.2802721261978149
aF1.2808674573898315
aF1.2820134162902832
aF1.2827994823455811
aF1.2837104797363281
aF1.2845436334609985
aF1.2856671810150146
aF1.2864011526107788
aF1.287284255027771
aF1.2881619930267334
aF1.2891267538070679
aF1.2898476123809814
aF1.2909749746322632
aF1.291606068611145
aF1.2927484512329102
aF1.2934404611587524
aF1.294360876083374
aF1.2952542304992676
aF1.2961322069168091
aF1.2970679998397827
aF1.2979599237442017
aF1.2988442182540894
aF1.2995599508285522
aF1.3005349636077881
aF1.3014070987701416
aF1.3024922609329224
aF1.3031027317047119
aF1.3041718006134033
aF1.3049569129943848
aF1.3058075904846191
aF1.3066521883010864
aF1.3076021671295166
aF1.3084607124328613
aF1.3093037605285645
aF1.3101074695587158
aF1.3110613822937012
aF1.3119826316833496
aF1.3127131462097168
aF1.3136652708053589
aF1.3145239353179932
aF1.3155114650726318
aF1.3161413669586182
aF1.3173295259475708
aF1.3179906606674194
aF1.3188052177429199
aF1.3198671340942383
aF1.3203905820846558
aF1.3217048645019531
aF1.3222107887268066
aF1.3232214450836182
aF1.3240689039230347
aF1.3249893188476562
aF1.3257927894592285
aF1.3266535997390747
aF1.3274002075195312
aF1.3284667730331421
aF1.3290644884109497
aF1.3302857875823975
aF1.330711841583252
aF1.3320295810699463
aF1.3326238393783569
aF1.3336596488952637
aF1.3343108892440796
aF1.3353676795959473
aF1.3360854387283325
aF1.3370170593261719
aF1.3378145694732666
aF1.3386191129684448
aF1.3395531177520752
aF1.3404022455215454
aF1.3411229848861694
aF1.3422137498855591
aF1.3429865837097168
aF1.34385085105896
aF1.3445532321929932
aF1.3456324338912964
aF1.3463262319564819
aF1.3473343849182129
aF1.348118782043457
aF1.3488752841949463
aF1.3497668504714966
aF1.3504996299743652
aF1.3516491651535034
aF1.3523696660995483
aF1.353082537651062
aF1.354042649269104
aF1.3549565076828003
aF1.3556116819381714
aF1.3564713001251221
aF1.3574213981628418
aF1.3582807779312134
aF1.3592022657394409
aF1.35986328125
aF1.3608185052871704
aF1.3615586757659912
aF1.3624498844146729
aF1.3633555173873901
aF1.3642168045043945
aF1.3648895025253296
aF1.3659340143203735
aF1.3664740324020386
aF1.3675644397735596
aF1.3682751655578613
aF1.3693814277648926
aF1.3699101209640503
aF1.3709795475006104
aF1.3717249631881714
aF1.372536301612854
aF1.3735008239746094
aF1.3742551803588867
aF1.3750585317611694
aF1.3757295608520508
aF1.3769192695617676
aF1.3775055408477783
aF1.3785017728805542
aF1.3790985345840454
aF1.3802130222320557
aF1.380866527557373
aF1.3818228244781494
aF1.3825274705886841
aF1.3835153579711914
aF1.3843047618865967
aF1.385037899017334
aF1.3861336708068848
aF1.386658787727356
aF1.3876403570175171
aF1.388388991355896
aF1.3892570734024048
aF1.3901664018630981
aF1.3908133506774902
aF1.3918662071228027
aF1.3925950527191162
aF1.3934179544448853
aF1.3943328857421875
aF1.3949688673019409
aF1.396000862121582
aF1.3966364860534668
aF1.3976079225540161
aF1.3983434438705444
aF1.3991872072219849
aF1.4001832008361816
aF1.4007703065872192
aF1.4017056226730347
aF1.4025605916976929
aF1.4032959938049316
aF1.4041063785552979
aF1.4051368236541748
aF1.4057431221008301
aF1.4067192077636719
aF1.4073865413665771
aF1.40840744972229
aF1.4089983701705933
aF1.4099946022033691
aF1.4108206033706665
aF1.4114702939987183
aF1.4124946594238281
aF1.4132553339004517
aF1.4141166210174561
aF1.414820671081543
aF1.415708065032959
aF1.4165464639663696
aF1.4174065589904785
aF1.4180214405059814
aF1.4189321994781494
aF1.4198000431060791
aF1.4206842184066772
aF1.4214792251586914
aF1.4222563505172729
aF1.4229726791381836
aF1.4238077402114868
aF1.4247784614562988
aF1.4255533218383789
aF1.4263089895248413
aF1.4271817207336426
aF1.4278010129928589
aF1.4288742542266846
aF1.4295717477798462
aF1.430509090423584
aF1.4312124252319336
aF1.4319967031478882
aF1.4330483675003052
aF1.4335798025131226
aF1.4346007108688354
aF1.435171365737915
aF1.4362677335739136
aF1.4368118047714233
aF1.437828540802002
aF1.4385131597518921
aF1.4393361806869507
aF1.440276026725769
aF1.4410637617111206
aF1.4417837858200073
aF1.4427900314331055
aF1.4435113668441772
aF1.4442756175994873
aF1.4451421499252319
aF1.4458978176116943
aF1.4465682506561279
aF1.4476091861724854
aF1.4483168125152588
aF1.4490431547164917
aF1.4500938653945923
aF1.4506837129592896
aF1.4515180587768555
aF1.4525368213653564
aF1.4530820846557617
aF1.4539679288864136
aF1.4549053907394409
aF1.4555215835571289
aF1.4565268754959106
aF1.4572608470916748
aF1.4580740928649902
aF1.4589334726333618
aF1.4595060348510742
aF1.4605414867401123
aF1.4611881971359253
aF1.4621340036392212
aF1.4629162549972534
aF1.463788628578186
aF1.4643908739089966
aF1.4653282165527344
aF1.4661307334899902
aF1.4668049812316895
aF1.4678194522857666
aF1.4683575630187988
aF1.4693270921707153
aF1.4701436758041382
aF1.4710586071014404
aF1.4716435670852661
aF1.4727238416671753
aF1.473325252532959
aF1.4741145372390747
aF1.4749985933303833
aF1.4758245944976807
aF1.4765539169311523
aF1.4774820804595947
aF1.4782035350799561
aF1.4789849519729614
aF1.4798884391784668
aF1.4805892705917358
aF1.4814302921295166
aF1.482187032699585
aF1.4830416440963745
aF1.4839273691177368
aF1.4846400022506714
aF1.4853571653366089
aF1.4863133430480957
aF1.4869176149368286
aF1.4878194332122803
aF1.4885642528533936
aF1.4892740249633789
aF1.4903302192687988
aF1.4909791946411133
aF1.4918274879455566
aF1.4926940202713013
aF1.4934560060501099
aF1.4941253662109375
aF1.4950288534164429
aF1.4957404136657715
aF1.4965882301330566
aF1.4974782466888428
aF1.4983000755310059
aF1.4989793300628662
aF1.4999626874923706
aF1.5005593299865723
aF1.5014826059341431
aF1.5021719932556152
aF1.5031561851501465
aF1.5037658214569092
aF1.5046167373657227
aF1.5053718090057373
aF1.5062555074691772
aF1.5069204568862915
aF1.507902979850769
aF1.5083296298980713
aF1.5094666481018066
aF1.5102674961090088
aF1.5109639167785645
aF1.511638879776001
aF1.5125894546508789
aF1.5132623910903931
aF1.5140315294265747
aF1.5149258375167847
aF1.5156213045120239
aF1.5166758298873901
aF1.5173454284667969
aF1.5181291103363037
aF1.5188894271850586
aF1.5197016000747681
aF1.5205695629119873
aF1.5212396383285522
aF1.5220927000045776
aF1.5228536128997803
aF1.5236465930938721
aF1.524484395980835
aF1.5251431465148926
aF1.5260411500930786
aF1.5268304347991943
aF1.5275591611862183
aF1.5283383131027222
aF1.5291509628295898
aF1.5299733877182007
aF1.5308564901351929
aF1.5315183401107788
aF1.5323323011398315
aF1.5331382751464844
aF1.5339871644973755
aF1.5346529483795166
aF1.5356723070144653
aF1.5363626480102539
aF1.5371971130371094
aF1.5380227565765381
aF1.5386786460876465
aF1.5396548509597778
aF1.5402129888534546
aF1.5411245822906494
aF1.5417783260345459
aF1.5425889492034912
aF1.5433973073959351
aF1.5442337989807129
aF1.5450540781021118
aF1.5457953214645386
aF1.5467512607574463
aF1.5473406314849854
aF1.5481996536254883
aF1.5490220785140991
aF1.5495415925979614
aF1.5505375862121582
aF1.5512425899505615
aF1.5521374940872192
aF1.5529314279556274
aF1.5536332130432129
aF1.5544499158859253
aF1.555200457572937
aF1.5560466051101685
aF1.5568244457244873
aF1.5575246810913086
aF1.5583893060684204
aF1.5589760541915894
aF1.559846043586731
aF1.5607748031616211
aF1.5615121126174927
aF1.5621374845504761
aF1.562947154045105
aF1.5637797117233276
aF1.5645736455917358
aF1.5655214786529541
aF1.5660234689712524
aF1.5669454336166382
aF1.5677175521850586
aF1.5684157609939575
aF1.5693631172180176
aF1.5700057744979858
aF1.5708799362182617
aF1.5716210603713989
aF1.5723984241485596
aF1.5732353925704956
aF1.5738996267318726
aF1.5747854709625244
aF1.5754562616348267
aF1.5763989686965942
aF1.5770745277404785
aF1.5779772996902466
aF1.5786393880844116
aF1.5796921253204346
aF1.5801142454147339
aF1.5811676979064941
aF1.5817153453826904
aF1.5827094316482544
aF1.5832334756851196
aF1.5840981006622314
aF1.5849851369857788
aF1.5856781005859375
aF1.5863196849822998
aF1.5872642993927002
aF1.588038444519043
aF1.5888925790786743
aF1.5895484685897827
aF1.5904862880706787
aF1.5911223888397217
aF1.5918807983398438
aF1.5927516222000122
aF1.5936105251312256
aF1.59429931640625
aF1.5950649976730347
aF1.5959447622299194
aF1.5967003107070923
aF1.5974351167678833
aF1.5982919931411743
aF1.5987944602966309
aF1.599950909614563
aF1.6004515886306763
aF1.6014567613601685
aF1.6021546125411987
aF1.6028412580490112
aF1.6036231517791748
aF1.604663610458374
aF1.605164647102356
aF1.6061446666717529
aF1.6067899465560913
aF1.607688307762146
aF1.6082608699798584
aF1.6091568470001221
aF1.6100455522537231
aF1.610700249671936
aF1.6115701198577881
aF1.6124036312103271
aF1.6131315231323242
aF1.6138774156570435
aF1.6146376132965088
aF1.6153929233551025
aF1.6162054538726807
aF1.6171488761901855
aF1.6177933216094971
aF1.6186249256134033
aF1.6192628145217896
aF1.6200095415115356
aF1.620922327041626
aF1.621695876121521
aF1.6223070621490479
aF1.6231566667556763
aF1.6239525079727173
aF1.6246429681777954
aF1.6254991292953491
aF1.6263149976730347
aF1.626900315284729
aF1.6278953552246094
aF1.6286425590515137
aF1.6293442249298096
aF1.6300202608108521
aF1.6309281587600708
aF1.6316946744918823
aF1.6324689388275146
aF1.6333092451095581
aF1.6338843107223511
aF1.6348122358322144
aF1.6354506015777588
aF1.6363029479980469
aF1.6370986700057983
aF1.637870192527771
aF1.638597846031189
aF1.6395100355148315
aF1.6402077674865723
aF1.6410590410232544
aF1.6417719125747681
aF1.6424453258514404
aF1.6434545516967773
aF1.6442294120788574
aF1.6449019908905029
aF1.645600438117981
aF1.6465184688568115
aF1.647254467010498
aF1.6478883028030396
aF1.6488525867462158
aF1.6495260000228882
aF1.6503931283950806
aF1.6510106325149536
aF1.6519211530685425
aF1.6526336669921875
aF1.6535360813140869
aF1.6541272401809692
aF1.6549248695373535
aF1.6556968688964844
aF1.6564803123474121
aF1.6573854684829712
aF1.6578270196914673
aF1.6588946580886841
aF1.6596449613571167
aF1.6605224609375
aF1.661028265953064
aF1.6620727777481079
aF1.6628228425979614
aF1.6634795665740967
aF1.6644051074981689
aF1.6651262044906616
aF1.6658006906509399
aF1.6667388677597046
aF1.6675738096237183
aF1.6680916547775269
aF1.6690281629562378
aF1.6695001125335693
aF1.6707965135574341
aF1.6712778806686401
aF1.6721407175064087
aF1.672722339630127
aF1.6737097501754761
aF1.6744475364685059
aF1.6751974821090698
aF1.6757441759109497
aF1.6766436100006104
aF1.677431583404541
aF1.6780804395675659
aF1.6789747476577759
aF1.6794801950454712
aF1.6806184053421021
aF1.6811689138412476
aF1.6819612979888916
aF1.6827801465988159
aF1.6835463047027588
aF1.6843199729919434
aF1.6850028038024902
aF1.6859461069107056
aF1.6863424777984619
aF1.6871788501739502
aF1.6879833936691284
aF1.6887621879577637
aF1.6896082162857056
aF1.6902127265930176
aF1.6912200450897217
aF1.6919915676116943
aF1.6925588846206665
aF1.6935441493988037
aF1.6942723989486694
aF1.6947721242904663
aF1.6957155466079712
aF1.6964045763015747
aF1.6973052024841309
aF1.6981048583984375
aF1.6987937688827515
aF1.6994653940200806
aF1.7002217769622803
aF1.7011862993240356
aF1.7018188238143921
aF1.7026578187942505
aF1.7033534049987793
aF1.7040358781814575
aF1.705055832862854
aF1.7055636644363403
aF1.7064015865325928
aF1.7072125673294067
aF1.707935094833374
aF1.7086029052734375
aF1.7094941139221191
aF1.71016526222229
aF1.7111146450042725
aF1.7118121385574341
aF1.7125557661056519
aF1.7135045528411865
aF1.7140474319458008
aF1.7149416208267212
aF1.7156944274902344
aF1.7162728309631348
aF1.7171434164047241
aF1.7178345918655396
aF1.7187051773071289
aF1.7194195985794067
aF1.7201689481735229
aF1.7209783792495728
aF1.7217820882797241
aF1.722364068031311
aF1.7233864068984985
aF1.7239845991134644
aF1.7248618602752686
aF1.7254785299301147
aF1.7262710332870483
aF1.726982593536377
aF1.7277700901031494
aF1.7286165952682495
aF1.7293530702590942
aF1.7301452159881592
aF1.7308173179626465
aF1.7317219972610474
aF1.7323585748672485
aF1.7331024408340454
aF1.733934760093689
aF1.7345900535583496
aF1.7354128360748291
aF1.7359170913696289
aF1.7369828224182129
aF1.737774133682251
aF1.7383160591125488
aF1.7391203641891479
aF1.7397031784057617
aF1.7405869960784912
aF1.741290807723999
aF1.7422246932983398
aF1.7429617643356323
aF1.7438271045684814
aF1.7443572282791138
aF1.7453808784484863
aF1.746040940284729
aF1.7466615438461304
aF1.7475683689117432
aF1.7482157945632935
aF1.7490904331207275
aF1.7498522996902466
aF1.7504299879074097
aF1.7512778043746948
aF1.7519373893737793
aF1.75278639793396
aF1.7536324262619019
aF1.7542703151702881
aF1.7551728487014771
aF1.7558172941207886
aF1.7565352916717529
aF1.7574758529663086
aF1.7578895092010498
aF1.7588348388671875
aF1.7594907283782959
aF1.7604535818099976
aF1.7608957290649414
aF1.7619879245758057
aF1.7626526355743408
aF1.7632421255111694
aF1.7641361951828003
aF1.7650690078735352
aF1.7654975652694702
aF1.7664457559585571
aF1.7670867443084717
aF1.7679276466369629
aF1.7687525749206543
aF1.7693437337875366
aF1.7701079845428467
aF1.770805835723877
aF1.7718009948730469
aF1.7722383737564087
aF1.7734173536300659
aF1.7739588022232056
aF1.7747839689254761
aF1.7754226922988892
aF1.7758735418319702
aF1.7770485877990723
aF1.7776849269866943
aF1.7785185575485229
aF1.7790442705154419
aF1.7798800468444824
aF1.780632495880127
aF1.7813764810562134
aF1.7823103666305542
aF1.7830835580825806
aF1.7837920188903809
aF1.7846808433532715
aF1.7853459119796753
aF1.7861589193344116
aF1.786878228187561
aF1.787713885307312
aF1.7885781526565552
aF1.7894142866134644
aF1.7900285720825195
aF1.7909462451934814
aF1.7916163206100464
aF1.7922841310501099
aF1.7930868864059448
aF1.793771505355835
aF1.7947050333023071
aF1.7953841686248779
aF1.7962697744369507
aF1.796883225440979
aF1.7976123094558716
aF1.7983720302581787
aF1.7989144325256348
aF1.799721360206604
aF1.8005838394165039
aF1.8014404773712158
aF1.8023252487182617
aF1.8030847311019897
aF1.8038381338119507
aF1.8046125173568726
aF1.8050907850265503
aF1.805975079536438
aF1.8065836429595947
aF1.8073271512985229
aF1.8082995414733887
aF1.8090548515319824
aF1.8095669746398926
aF1.8106180429458618
aF1.8114098310470581
aF1.8121292591094971
aF1.813102126121521
aF1.8138054609298706
aF1.8143129348754883
aF1.8153871297836304
aF1.8161039352416992
aF1.8171354532241821
aF1.8175867795944214
aF1.8184576034545898
aF1.8193509578704834
aF1.820203423500061
aF1.8210906982421875
aF1.8217146396636963
aF1.8222239017486572
aF1.8231796026229858
aF1.8238310813903809
aF1.8244630098342896
aF1.8252708911895752
aF1.8259892463684082
aF1.8265111446380615
aF1.8273437023162842
aF1.827908992767334
aF1.8290014266967773
aF1.8293194770812988
aF1.8304761648178101
aF1.8310017585754395
aF1.8319933414459229
aF1.8325341939926147
aF1.8335565328598022
aF1.8342552185058594
aF1.8351693153381348
aF1.8359947204589844
aF1.8367680311203003
aF1.8374617099761963
aF1.8382172584533691
aF1.8387526273727417
aF1.8395413160324097
aF1.840289831161499
aF1.8411245346069336
aF1.8418623208999634
aF1.8424621820449829
aF1.8434993028640747
aF1.8440802097320557
aF1.8450536727905273
aF1.8456850051879883
aF1.8464910984039307
aF1.8470702171325684
aF1.8476824760437012
aF1.8483238220214844
aF1.8495651483535767
aF1.8499788045883179
aF1.8508501052856445
aF1.8516829013824463
aF1.8523862361907959
aF1.8531241416931152
aF1.853955864906311
aF1.8546739816665649
aF1.8552113771438599
aF1.85631263256073
aF1.8566186428070068
aF1.8577739000320435
aF1.8582206964492798
aF1.8588957786560059
aF1.8595654964447021
aF1.8602727651596069
aF1.8611407279968262
aF1.8622231483459473
aF1.8627686500549316
aF1.8635053634643555
aF1.8644777536392212
aF1.8652254343032837
aF1.8663749694824219
aF1.866571307182312
aF1.8673601150512695
aF1.8680627346038818
aF1.8686281442642212
aF1.86942458152771
aF1.8703628778457642
aF1.8707642555236816
aF1.8714567422866821
aF1.8720799684524536
aF1.8723510503768921
aF1.8733450174331665
aF1.8739876747131348
aF1.8748810291290283
aF1.8757451772689819
aF1.8765640258789062
aF1.877299427986145
aF1.8781476020812988
aF1.8789001703262329
aF1.8796252012252808
aF1.880159854888916
aF1.8809518814086914
aF1.8816375732421875
aF1.8823666572570801
aF1.8829725980758667
aF1.8840522766113281
aF1.8845237493515015
aF1.8852270841598511
aF1.8859661817550659
aF1.8865883350372314
aF1.8873364925384521
aF1.8879969120025635
aF1.8885681629180908
aF1.8894602060317993
aF1.8902603387832642
aF1.8909780979156494
aF1.8917590379714966
aF1.8926559686660767
aF1.8934029340744019
aF1.8940786123275757
aF1.8950598239898682
aF1.8955742120742798
aF1.8964724540710449
aF1.8967477083206177
aF1.8978308439254761
aF1.8985071182250977
aF1.899111270904541
aF1.9002335071563721
aF1.9009336233139038
aF1.9017715454101562
aF1.9021804332733154
aF1.903193473815918
aF1.9039652347564697
aF1.9047172069549561
aF1.9060549736022949
aF1.9062658548355103
aF1.9069924354553223
aF1.9077227115631104
aF1.9084084033966064
aF1.9094138145446777
aF1.90976881980896
aF1.9108009338378906
aF1.9114470481872559
aF1.9123361110687256
aF1.9132184982299805
aF1.9139626026153564
aF1.9146504402160645
aF1.9152618646621704
aF1.9156563282012939
aF1.916593074798584
aF1.9168022871017456
aF1.9175674915313721
aF1.9184203147888184
aF1.9188817739486694
aF1.9196490049362183
aF1.9205788373947144
aF1.9212617874145508
aF1.9221259355545044
aF1.9226610660552979
aF1.9237828254699707
aF1.9245425462722778
aF1.9251675605773926
aF1.925922155380249
aF1.9264863729476929
aF1.9272564649581909
aF1.9279757738113403
aF1.9291555881500244
aF1.9295229911804199
aF1.9303568601608276
aF1.9308195114135742
aF1.9310091733932495
aF1.9318082332611084
aF1.9322762489318848
aF1.9330592155456543
aF1.9338514804840088
aF1.9344087839126587
aF1.9354032278060913
aF1.9367364645004272
aF1.937103271484375
aF1.9377784729003906
aF1.9387290477752686
aF1.9393424987792969
aF1.9402624368667603
aF1.9411314725875854
aF1.941938042640686
aF1.942512035369873
aF1.9434140920639038
aF1.9437040090560913
aF1.9443056583404541
aF1.9450035095214844
aF1.9455854892730713
aF1.9463541507720947
aF1.9471944570541382
aF1.948363184928894
aF1.9489175081253052
aF1.9497277736663818
aF1.9506276845932007
aF1.9513506889343262
aF1.9520714282989502
aF1.9529693126678467
aF1.9537718296051025
aF1.9548372030258179
aF1.955411434173584
aF1.9564065933227539
aF1.9571382999420166
aF1.9573448896408081
aF1.9581946134567261
aF1.9587769508361816
aF1.9596174955368042
aF1.9601339101791382
aF1.9609345197677612
aF1.9611363410949707
aF1.9623894691467285
aF1.9630544185638428
aF1.9636131525039673
aF1.9640647172927856
aF1.9647203683853149
aF1.9660600423812866
aF1.9656211137771606
aF1.9670569896697998
aF1.9674438238143921
aF1.9688819646835327
aF1.9692988395690918
aF1.9702905416488647
aF1.9707750082015991
aF1.9714487791061401
aF1.9721357822418213
aF1.9728115797042847
aF1.9737566709518433
aF1.9744197130203247
aF1.9752089977264404
aF1.9759777784347534
aF1.9761911630630493
aF1.9771803617477417
aF1.9777935743331909
aF1.9789309501647949
aF1.9794872999191284
aF1.9808051586151123
aF1.9812027215957642
aF1.9820337295532227
aF1.9820405244827271
aF1.9832160472869873
aF1.9831703901290894
aF1.9843854904174805
aF1.9852232933044434
aF1.9860036373138428
aF1.9868354797363281
aF1.9873964786529541
aF1.9885954856872559
aF1.9887810945510864
aF1.9900972843170166
aF1.9904661178588867
aF1.9913108348846436
aF1.9926896095275879
aF1.9934824705123901
aF1.9945542812347412
aF1.9949765205383301
aF1.9952751398086548
aF1.996300220489502
aF1.9968984127044678
aF1.9975786209106445
aF1.9985060691833496
aF1.99922776222229
aF2.0001730918884277
aF2.001025915145874
aF2.0019152164459229
aF2.0025990009307861
aF2.0032978057861328
aF2.0033748149871826
aF2.0043752193450928
aF2.0046284198760986
aF2.0057096481323242
aF2.0063309669494629
aF2.0075733661651611
aF2.0079154968261719
aF2.0085482597351074
aF2.009573221206665
aF2.0099780559539795
aF2.0112385749816895
aF2.011136531829834
aF2.0123915672302246
aF2.0127835273742676
aF2.0135655403137207
aF2.0142743587493896
aF2.0151174068450928
aF2.0157625675201416
aF2.0163636207580566
aF2.0174691677093506
aF2.0184524059295654
aF2.0190081596374512
aF2.0193264484405518
aF2.0196213722229004
aF2.0206766128540039
aF2.0209686756134033
aF2.0209431648254395
aF2.021674633026123
aF2.0220484733581543
aF2.0226342678070068
aF2.0232229232788086
aF2.024101734161377
aF2.0241003036499023
aF2.0254611968994141
aF2.0261096954345703
aF2.0272290706634521
aF2.0280716419219971
aF2.0287442207336426
aF2.029421329498291
aF2.0301969051361084
aF2.0303113460540771
aF2.0304961204528809
aF2.0323045253753662
aF2.0318219661712646
aF2.0331013202667236
aF2.0334541797637939
aF2.0343868732452393
aF2.0345704555511475
aF2.0356504917144775
aF2.0362734794616699
aF2.0365011692047119
aF2.0367405414581299
aF2.0372602939605713
aF2.037783145904541
aF2.0385136604309082
aF2.039161205291748
aF2.0402498245239258
aF2.0403680801391602
aF2.0411880016326904
aF2.0417399406433105
aF2.0431370735168457
aF2.0434508323669434
aF2.0441243648529053
aF2.0450060367584229
aF2.0455076694488525
aF2.0465528964996338
aF2.0469698905944824
aF2.0479528903961182
aF2.0485203266143799
aF2.0485661029815674
aF2.0495824813842773
aF2.0499837398529053
aF2.0513556003570557
aF2.0518686771392822
aF2.0528607368469238
aF2.0534060001373291
aF2.0539186000823975
aF2.0542066097259521
aF2.0551357269287109
aF2.0553858280181885
aF2.0562520027160645
aF2.056196928024292
aF2.0568499565124512
aF2.0571424961090088
aF2.0581707954406738
aF2.0583329200744629
aF2.0593967437744141
aF2.059891939163208
aF2.0610392093658447
aF2.0610454082489014
aF2.0627000331878662
aF2.0630550384521484
aF2.0642023086547852
aF2.0647182464599609
aF2.0659666061401367
aF2.0661032199859619
aF2.0666370391845703
aF2.0666170120239258
aF2.0681123733520508
aF2.0681746006011963
aF2.0690608024597168
aF2.0699567794799805
aF2.0701992511749268
aF2.071192741394043
aF2.0715723037719727
aF2.0721175670623779
aF2.0725176334381104
aF2.0735187530517578
aF2.0741333961486816
aF2.0746939182281494
aF2.0760972499847412
aF2.0766372680664062
aF2.0779860019683838
aF2.0786828994750977
aF2.0794870853424072
aF2.0811116695404053
aF2.0817906856536865
aF2.0822639465332031
aF2.0830917358398438
aF2.0835244655609131
aF2.0843603610992432
aF2.084827184677124
aF2.0859067440032959
aF2.086047887802124
aF2.087716817855835
aF2.0884106159210205
aF2.0896854400634766
aF2.0895640850067139
aF2.0905568599700928
aF2.0913708209991455
aF2.0914785861968994
aF2.0924012660980225
aF2.0929567813873291
aF2.0936853885650635
aF2.092848539352417
aF2.0948543548583984
aF2.0942182540893555
aF2.0953464508056641
aF2.0948953628540039
aF2.095977783203125
aF2.096625804901123
aF2.0982975959777832
aF2.0972232818603516
aF2.0990970134735107
aF2.0991604328155518
aF2.0990996360778809
aF2.1004495620727539
aF2.1009736061096191
aF2.1019766330718994
aF2.1027853488922119
aF2.1038646697998047
aF2.1045401096343994
aF2.1054282188415527
aF2.1061012744903564
aF2.1066975593566895
aF2.1081948280334473
aF2.1088106632232666
aF2.1104772090911865
aF2.1105380058288574
aF2.1119954586029053
aF2.1124920845031738
aF2.1131243705749512
aF2.1143062114715576
aF2.1150546073913574
aF2.1156895160675049
aF2.116459846496582
aF2.1169357299804688
aF2.1176743507385254
aF2.1184358596801758
aF2.1187067031860352
aF2.119335412979126
aF2.1196963787078857
aF2.1208550930023193
aF2.1212618350982666
aF2.1222047805786133
aF2.1228055953979492
aF2.1239573955535889
aF2.1243460178375244
aF2.12563157081604
aF2.1254892349243164
aF2.1262922286987305
aF2.1259994506835938
aF2.1267640590667725
aF2.1270062923431396
aF2.127882719039917
aF2.1293096542358398
aF2.1295771598815918
aF2.1300678253173828
aF2.1318583488464355
aF2.1313266754150391
aF2.1333131790161133
aF2.1337449550628662
aF2.1334681510925293
aF2.1351351737976074
aF2.1349682807922363
aF2.136765718460083
aF2.1379506587982178
aF2.1379213333129883
aF2.13919997215271
aF2.1392004489898682
aF2.140864372253418
aF2.140303373336792
aF2.1424465179443359
aF2.1426687240600586
aF2.1439154148101807
aF2.1446144580841064
aF2.1451976299285889
aF2.1467165946960449
aF2.1473116874694824
aF2.1481697559356689
aF2.1492249965667725
aF2.1493947505950928
aF2.1504073143005371
aF2.1511974334716797
aF2.1520631313323975
aF2.1527438163757324
aF2.1527712345123291
aF2.1528780460357666
aF2.1537587642669678
aF2.1541843414306641
aF2.1545770168304443
aF2.1559321880340576
aF2.1560361385345459
aF2.156940221786499
aF2.1573271751403809
aF2.1582589149475098
aF2.1580567359924316
aF2.1604702472686768
aF2.1597011089324951
aF2.1610574722290039
aF2.1608896255493164
aF2.1622707843780518
aF2.162919282913208
aF2.1643350124359131
aF2.1635291576385498
aF2.164677619934082
aF2.1650612354278564
aF2.165297269821167
aF2.1659514904022217
aF2.1659157276153564
aF2.1673989295959473
aF2.1673579216003418
aF2.168067455291748
aF2.168384313583374
aF2.1690843105316162
aF2.1699788570404053
aF2.1702115535736084
aF2.1715116500854492
aF2.1715848445892334
aF2.1720774173736572
aF2.1728308200836182
aF2.1743831634521484
aF2.175701379776001
aF2.1754946708679199
aF2.176539421081543
aF2.1773641109466553
aF2.178654670715332
aF2.1796286106109619
aF2.1799860000610352
aF2.1803758144378662
aF2.1813523769378662
aF2.1802585124969482
aF2.180750846862793
aF2.1814334392547607
aF2.1815574169158936
aF2.1823084354400635
aF2.1820483207702637
aF2.1828837394714355
aF2.1839449405670166
aF2.1836831569671631
aF2.1839191913604736
aF2.1853892803192139
aF2.1846902370452881
aF2.1867425441741943
aF2.1856975555419922
aF2.1877844333648682
aF2.1868395805358887
aF2.1891663074493408
aF2.189378023147583
aF2.189732551574707
aF2.1907060146331787
aF2.1906054019927979
aF2.1915860176086426
aF2.192044734954834
aF2.1931476593017578
aF2.1935660839080811
aF2.1942474842071533
aF2.194291353225708
aF2.1959347724914551
aF2.195993185043335
aF2.1969382762908936
aF2.1980395317077637
aF2.1984803676605225
aF2.199948787689209
aF2.1998951435089111
aF2.2014930248260498
aF2.202420711517334
aF2.2031481266021729
aF2.2044045925140381
aF2.2045233249664307
aF2.2057859897613525
aF2.2056765556335449
aF2.2068905830383301
aF2.2065205574035645
aF2.2074098587036133
aF2.2074234485626221
aF2.2091701030731201
aF2.2082393169403076
aF2.2107787132263184
aF2.2108066082000732
aF2.2112808227539062
aF2.2121660709381104
aF2.2121233940124512
aF2.2149624824523926
aF2.2145907878875732
aF2.2163820266723633
aF2.2174065113067627
aF2.2160227298736572
aF2.2186932563781738
aF2.2172408103942871
aF2.2193660736083984
aF2.2197284698486328
aF2.2201573848724365
aF2.2224950790405273
aF2.2214920520782471
aF2.2243340015411377
aF2.2215108871459961
aF2.2223589420318604
aF2.2248079776763916
aF2.2249138355255127
aF2.227302074432373
aF2.2268655300140381
aF2.2260456085205078
aF2.2254092693328857
aF2.2275562286376953
aF2.2276227474212646
aF2.2281277179718018
aF2.2275729179382324
aF2.2289488315582275
aF2.2283005714416504
aF2.230525016784668
aF2.228583812713623
aF2.2319881916046143
aF2.2278537750244141
aF2.2318737506866455
aF2.2318994998931885
aF2.2319567203521729
aF2.2299447059631348
aF2.2327375411987305
aF2.2307507991790771
aF2.2324669361114502
aF2.2314157485961914
aF2.2349288463592529
aF2.2297220230102539
aF2.2326967716217041
aF2.2320971488952637
aF2.2330975532531738
aF2.2320895195007324
aF2.2312526702880859
aF2.2324230670928955
aF2.2321491241455078
aF2.2318682670593262
aF2.2320139408111572
aF2.2321908473968506
aF2.2330987453460693
aF2.228663444519043
aF2.2355787754058838
aF2.2302951812744141
aF2.2332882881164551
aF2.231647253036499
aF2.235795259475708
aF2.2336673736572266
aF2.2381453514099121
aF2.2372727394104004
aF2.2401330471038818
aF2.2391643524169922
aF2.239776611328125
aF2.2440793514251709
aF2.240119457244873
aF2.2448277473449707
aF2.243661642074585
aF2.2458775043487549
aF2.235105037689209
aF2.2453336715698242
aF2.2421307563781738
aF2.2393484115600586
aF2.2412846088409424
aF2.2383863925933838
aF2.2386147975921631
aF2.2345449924468994
aF2.232027530670166
aF2.2360401153564453
aF2.236720085144043
aF2.2370648384094238
aF2.2356514930725098
aF2.2351956367492676
aF2.2329158782958984
aF2.2358033657073975
aF2.2320332527160645
aF2.2298946380615234
aF2.2158560752868652
aF2.2307405471801758
aF2.2176036834716797
aF2.2268059253692627
aF2.2099590301513672
aF2.2259128093719482
aF2.194087028503418
aF2.2307004928588867
aF2.1856491565704346
aF2.2509913444519043
aF2.1853165626525879
aF2.2409424781799316
aF2.207594633102417
aF2.2107748985290527
aF2.2075784206390381
aF2.1995513439178467
aF2.2207779884338379
aF2.1929657459259033
aF2.1889643669128418
aF2.1845226287841797
aF2.1533689498901367
aF2.2939093112945557
aF3.829883337020874
aF6.5166096687316895
aF3.6796231269836426
aF4.7112588882446289
aF3.8900146484375
aF2.6654860973358154
aF3.1553628444671631
aF2.6370663642883301
aF2.6884007453918457
aF2.7143909931182861
aF2.7023501396179199
aF2.6801550388336182
aF2.6597902774810791
aF2.6435041427612305
aF2.6306667327880859
aF2.6203081607818604
aF2.611685037612915
aF2.6042985916137695
aF2.5978326797485352
aF2.5920710563659668
aF2.5868852138519287
aF2.5821681022644043
aF2.5778408050537109
aF2.5738461017608643
aF2.5701360702514648
aF2.566673755645752
aF2.5634305477142334
aF2.560380220413208
aF2.5575058460235596
aF2.5547888278961182
aF2.5522093772888184
aF2.5497527122497559
aF2.5474100112915039
aF2.5451705455780029
aF2.5430243015289307
aF2.5409688949584961
aF2.5390002727508545
aF2.5371153354644775
aF2.5353009700775146
aF2.5335559844970703
aF2.5318784713745117
aF2.5302615165710449
aF2.5287027359008789
aF2.5272006988525391
aF2.5257456302642822
aF2.5243399143218994
aF2.522972583770752
aF2.5216460227966309
aF2.5203568935394287
aF2.5191009044647217
aF2.5178778171539307
aF2.516688346862793
aF2.5155246257781982
aF2.5143980979919434
aF2.5132982730865479
aF2.5122213363647461
aF2.5111663341522217
aF2.5101339817047119
aF2.5091261863708496
aF2.5081448554992676
aF2.5071790218353271
aF2.5062332153320312
aF2.5053060054779053
aF2.5044031143188477
aF2.5035197734832764
aF2.5026612281799316
aF2.501821756362915
aF2.5009968280792236
aF2.5001847743988037
aF2.4993855953216553
aF2.4986028671264648
aF2.4978349208831787
aF2.497079610824585
aF2.4963333606719971
aF2.4955992698669434
aF2.4948816299438477
aF2.4941911697387695
aF2.4935133457183838
aF2.4928419589996338
aF2.4921796321868896
aF2.4915273189544678
aF2.490889310836792
aF2.4902586936950684
aF2.4896352291107178
aF2.4890222549438477
aF2.4884214401245117
aF2.487835168838501
aF2.4872567653656006
aF2.4866864681243896
aF2.486126184463501
aF2.485576868057251
aF2.4850378036499023
aF2.4845108985900879
aF2.4839918613433838
aF2.4834744930267334
aF2.4829614162445068
aF2.4824528694152832
aF2.48195481300354
aF2.4814639091491699
aF2.4809808731079102
aF2.48050856590271
aF2.4800431728363037
aF2.479576587677002
aF2.4791116714477539
aF2.4786481857299805
aF2.4781904220581055
aF2.4777395725250244
aF2.4772946834564209
aF2.4768579006195068
aF2.4764277935028076
aF2.4760041236877441
aF2.4755783081054688
aF2.4751543998718262
aF2.4747333526611328
aF2.4743165969848633
aF2.4739096164703369
aF2.4735090732574463
aF2.4731144905090332
aF2.4727208614349365
aF2.472332239151001
aF2.471949577331543
aF2.4715745449066162
aF2.4712002277374268
aF2.4708240032196045
aF2.4704477787017822
aF2.4700729846954346
aF2.4697034358978271
aF2.4693372249603271
aF2.4689767360687256
aF2.4686191082000732
aF2.4682583808898926
aF2.467902660369873
aF2.4675459861755371
aF2.4671919345855713
aF2.4668469429016113
aF2.4665036201477051
aF2.4661614894866943
aF2.4658203125
aF2.4654805660247803
aF2.4651415348052979
aF2.46480393409729
aF2.4644730091094971
aF2.4641473293304443
aF2.463822603225708
aF2.4635043144226074
aF2.4631912708282471
aF2.4628808498382568
aF2.4625716209411621
aF2.4622650146484375
aF2.461961030960083
aF2.4616594314575195
aF2.4613592624664307
aF2.4610669612884521
aF2.4607791900634766
aF2.4604933261871338
aF2.4602093696594238
aF2.4599263668060303
aF2.4596452713012695
aF2.459364652633667
aF2.4590821266174316
aF2.4588007926940918
aF2.4585185050964355
aF2.4582309722900391
aF2.4579355716705322
aF2.4576404094696045
aF2.4573471546173096
aF2.457061767578125
aF2.4567830562591553
aF2.4565095901489258
aF2.4562366008758545
aF2.4559648036956787
aF2.455693244934082
aF2.4554224014282227
aF2.4551539421081543
aF2.4548892974853516
aF2.4546277523040771
aF2.4543683528900146
aF2.4541101455688477
aF2.4538547992706299
aF2.4535953998565674
aF2.4533419609069824
aF2.4530942440032959
aF2.4528505802154541
aF2.4526095390319824
aF2.4523718357086182
aF2.4521331787109375
aF2.4518954753875732
aF2.4516580104827881
aF2.4514191150665283
aF2.4511816501617432
aF2.4509363174438477
aF2.4506886005401611
aF2.4504423141479492
aF2.4501998424530029
aF2.4499566555023193
aF2.4497179985046387
aF2.449481725692749
aF2.4492416381835938
aF2.4490001201629639
aF2.4487607479095459
aF2.4485273361206055
aF2.4482924938201904
aF2.4480488300323486
aF2.447803258895874
aF2.447554349899292
aF2.4473063945770264
aF2.4470586776733398
aF2.446812629699707
aF2.4465682506561279
aF2.4463245868682861
aF2.4460856914520264
aF2.4458498954772949
aF2.4456143379211426
aF2.4453785419464111
aF2.4451436996459961
aF2.4449090957641602
aF2.4446730613708496
aF2.4444382190704346
aF2.4442071914672852
aF2.4439718723297119
aF2.4437367916107178
aF2.4435024261474609
aF2.4432661533355713
aF2.4430291652679443
aF2.4427952766418457
aF2.4425668716430664
aF2.4423389434814453
aF2.4421155452728271
aF2.4418928623199463
aF2.44167160987854
aF2.441448450088501
aF2.4412262439727783
aF2.4410099983215332
aF2.4407961368560791
aF2.4405825138092041
aF2.4403703212738037
aF2.4401578903198242
aF2.4399430751800537
aF2.4397294521331787
aF2.4395203590393066
aF2.4393153190612793
aF2.4391107559204102
aF2.4389059543609619
aF2.4387021064758301
aF2.4384975433349609
aF2.43829345703125
aF2.4380865097045898
aF2.4378783702850342
aF2.4376664161682129
aF2.4374496936798096
aF2.4372315406799316
aF2.4370126724243164
aF2.4367923736572266
aF2.4365735054016113
aF2.4363524913787842
aF2.4361317157745361
aF2.4359114170074463
aF2.4356899261474609
aF2.4354689121246338
aF2.4352471828460693
aF2.4350235462188721
aF2.4348063468933105
aF2.4345946311950684
aF2.4343893527984619
aF2.434190034866333
aF2.4339966773986816
aF2.4338071346282959
aF2.4336185455322266
aF2.433429479598999
aF2.4332387447357178
aF2.4330494403839111
aF2.4328579902648926
aF2.4326674938201904
aF2.4324781894683838
aF2.4322872161865234
aF2.4320943355560303
aF2.4319016933441162
aF2.4317097663879395
aF2.4315166473388672
aF2.4313230514526367
aF2.431133508682251
aF2.4309465885162354
aF2.4307606220245361
aF2.4305741786956787
aF2.4303877353668213
aF2.4302005767822266
aF2.4300127029418945
aF2.4298250675201416
aF2.4296360015869141
aF2.4294393062591553
aF2.4292421340942383
aF2.4290494918823242
aF2.4288578033447266
aF2.4286680221557617
aF2.4284868240356445
aF2.4283075332641602
aF2.4281320571899414
aF2.4279634952545166
aF2.4277951717376709
aF2.4276266098022461
aF2.4274580478668213
aF2.4272885322570801
aF2.4271175861358643
aF2.4269466400146484
aF2.4267747402191162
aF2.4266030788421631
aF2.426429271697998
aF2.4262542724609375
aF2.4260835647583008
aF2.4259021282196045
aF2.4257094860076904
aF2.4255125522613525
aF2.4253084659576416
aF2.4251012802124023
aF2.4249093532562256
aF2.4247181415557861
aF2.4245259761810303
aF2.4243321418762207
aF2.4241392612457275
aF2.4239428043365479
aF2.4237475395202637
aF2.4235513210296631
aF2.4233598709106445
aF2.4231748580932617
aF2.4229860305786133
aF2.4227955341339111
aF2.422602653503418
aF2.4224088191986084
aF2.42221999168396
aF2.4220364093780518
aF2.4218413829803467
aF2.421638011932373
aF2.4214305877685547
aF2.421222448348999
aF2.4210128784179688
aF2.4208023548126221
aF2.4205927848815918
aF2.4203810691833496
aF2.4201688766479492
aF2.4199552536010742
aF2.4197423458099365
aF2.4195272922515869
aF2.4193136692047119
aF2.4190983772277832
aF2.4188690185546875
aF2.4186320304870605
aF2.4183924198150635
aF2.4181520938873291
aF2.4179234504699707
aF2.417712926864624
aF2.4175088405609131
aF2.4173097610473633
aF2.4171099662780762
aF2.4169111251831055
aF2.4167110919952393
aF2.4165098667144775
aF2.4163088798522949
aF2.41611647605896
aF2.4159338474273682
aF2.4157576560974121
aF2.4155843257904053
aF2.4154164791107178
aF2.4152493476867676
aF2.4150848388671875
aF2.4149231910705566
aF2.4147615432739258
aF2.4145982265472412
aF2.4144349098205566
aF2.4142706394195557
aF2.4141063690185547
aF2.4139413833618164
aF2.4137742519378662
aF2.4136064052581787
aF2.4134373664855957
aF2.41326904296875
aF2.4130980968475342
aF2.4129271507263184
aF2.4127552509307861
aF2.4125814437866211
aF2.4123964309692383
aF2.4122014045715332
aF2.412003755569458
aF2.4118068218231201
aF2.4116160869598389
aF2.4114260673522949
aF2.411236047744751
aF2.4110445976257324
aF2.4108538627624512
aF2.4106626510620117
aF2.4104709625244141
aF2.4102811813354492
aF2.41007399559021
aF2.4098606109619141
aF2.4096560478210449
aF2.4094617366790771
aF2.4092609882354736
aF2.4090542793273926
aF2.4088459014892578
aF2.4086358547210693
aF2.4084253311157227
aF2.4082140922546387
aF2.4080018997192383
aF2.4077892303466797
aF2.4075760841369629
aF2.4073660373687744
aF2.4071626663208008
aF2.4069671630859375
aF2.406773567199707
aF2.4065794944763184
aF2.4063851833343506
aF2.4061901569366455
aF2.4059948921203613
aF2.4057981967926025
aF2.4055943489074707
aF2.4053869247436523
aF2.405177116394043
aF2.4049661159515381
aF2.4047529697418213
aF2.4045329093933105
aF2.4043059349060059
aF2.4040782451629639
aF2.4038407802581787
aF2.4036023616790771
aF2.4033641815185547
aF2.4031252861022949
aF2.4028873443603516
aF2.4026460647583008
aF2.4024417400360107
aF2.4022579193115234
aF2.4020764827728271
aF2.4018955230712891
aF2.4017148017883301
aF2.401531457901001
aF2.4013471603393555
aF2.4011750221252441
aF2.4010112285614014
aF2.4008493423461914
aF2.4006891250610352
aF2.400529146194458
aF2.4003658294677734
aF2.4002013206481934
aF2.4000356197357178
aF2.3998584747314453
aF2.3996791839599609
aF2.3994946479797363
aF2.399308443069458
aF2.3991198539733887
aF2.3989284038543701
aF2.3987360000610352
aF2.3985416889190674
aF2.3983449935913086
aF2.3981449604034424
aF2.3979511260986328
aF2.3977665901184082
aF2.397590160369873
aF2.3974242210388184
aF2.3972597122192383
aF2.3970952033996582
aF2.3969388008117676
aF2.3967897891998291
aF2.3966176509857178
aF2.396437406539917
aF2.396251916885376
aF2.3960647583007812
aF2.3958773612976074
aF2.3956875801086426
aF2.3954973220825195
aF2.3952724933624268
aF2.3950479030609131
aF2.3948149681091309
aF2.3945629596710205
aF2.3942911624908447
aF2.3940129280090332
aF2.3937335014343262
aF2.3934271335601807
aF2.3931028842926025
aF2.392775297164917
aF2.3924486637115479
aF2.3921208381652832
aF2.3917942047119141
aF2.3914642333984375
aF2.3911230564117432
aF2.3907816410064697
aF2.3904397487640381
aF2.3900983333587646
aF2.3897552490234375
aF2.3894133567810059
aF2.389073371887207
aF2.3887317180633545
aF2.3883914947509766
aF2.3880503177642822
aF2.3877115249633789
aF2.3873729705810547
aF2.3870337009429932
aF2.3866932392120361
aF2.3863542079925537
aF2.3860146999359131
aF2.3856744766235352
aF2.3853511810302734
aF2.3850629329681396
aF2.3848063945770264
aF2.3845531940460205
aF2.3842942714691162
aF2.3840315341949463
aF2.3837666511535645
aF2.3835041522979736
aF2.3832507133483887
aF2.3829998970031738
aF2.3827469348907471
aF2.3825061321258545
aF2.3822765350341797
aF2.3820490837097168
aF2.3818216323852539
aF2.3815908432006836
aF2.3813602924346924
aF2.3811275959014893
aF2.3808910846710205
aF2.3806595802307129
aF2.3804299831390381
aF2.3801987171173096
aF2.3799819946289062
aF2.3797817230224609
aF2.3795821666717529
aF2.3793814182281494
aF2.3791792392730713
aF2.3789730072021484
aF2.3787703514099121
aF2.3785629272460938
aF2.3783533573150635
aF2.3781404495239258
aF2.3779237270355225
aF2.3777036666870117
aF2.3774814605712891
aF2.3772828578948975
aF2.3770983219146729
aF2.3769140243530273
aF2.376727819442749
aF2.3765368461608887
aF2.3763418197631836
aF2.3761415481567383
aF2.3759374618530273
aF2.3757266998291016
aF2.3755142688751221
aF2.3752954006195068
aF2.3750960826873779
aF2.374863862991333
aF2.3746206760406494
aF2.3743867874145508
aF2.3741624355316162
aF2.3739409446716309
aF2.3737258911132812
aF2.3735346794128418
aF2.3733503818511963
aF2.3731534481048584
aF2.372948169708252
aF2.3727402687072754
aF2.3725283145904541
aF2.3723070621490479
aF2.3720805644989014
aF2.3718481063842773
aF2.3716158866882324
aF2.3713815212249756
aF2.3711426258087158
aF2.370901346206665
aF2.3706569671630859
aF2.3704187870025635
aF2.3701808452606201
aF2.3699400424957275
aF2.3696634769439697
aF2.3693394660949707
aF2.3689992427825928
aF2.3686535358428955
aF2.3683221340179443
aF2.3680086135864258
aF2.3676726818084717
aF2.3673269748687744
aF2.3669755458831787
aF2.366621732711792
aF2.3662683963775635
aF2.3659126758575439
aF2.3655557632446289
aF2.3651988506317139
aF2.3648192882537842
aF2.364422082901001
aF2.3640182018280029
aF2.363640308380127
aF2.3632755279541016
aF2.362912654876709
aF2.3625826835632324
aF2.3622853755950928
aF2.3620021343231201
aF2.3617208003997803
aF2.361403226852417
aF2.3611314296722412
aF2.3608882427215576
aF2.3606514930725098
aF2.3604109287261963
aF2.3602275848388672
aF2.3600575923919678
aF2.3598880767822266
aF2.3596515655517578
aF2.3594546318054199
aF2.359299898147583
aF2.3591434955596924
aF2.3588926792144775
aF2.358694314956665
aF2.3584456443786621
aF2.3581876754760742
aF2.3578701019287109
aF2.3576035499572754
aF2.3573837280273438
aF2.3571221828460693
aF2.3568463325500488
aF2.3565104007720947
aF2.3561422824859619
aF2.355764627456665
aF2.3553860187530518
aF2.3550090789794922
aF2.3546335697174072
aF2.3541851043701172
aF2.3537125587463379
aF2.3532378673553467
aF2.3528552055358887
aF2.3524494171142578
aF2.352036714553833
aF2.3516252040863037
aF2.351238489151001
aF2.3508849143981934
aF2.3505434989929199
aF2.3502089977264404
aF2.3498799800872803
aF2.3495538234710693
aF2.3492553234100342
aF2.3489809036254883
aF2.3487148284912109
aF2.3484559059143066
aF2.3481993675231934
aF2.3479404449462891
aF2.3477344512939453
aF2.34755539894104
aF2.3473813533782959
aF2.34720778465271
aF2.3470306396484375
aF2.3468868732452393
aF2.3467741012573242
aF2.3466646671295166
aF2.346550464630127
aF2.3464276790618896
aF2.3462977409362793
aF2.3461580276489258
aF2.3460116386413574
aF2.3457870483398438
aF2.3455374240875244
aF2.3452789783477783
aF2.345017671585083
aF2.3447375297546387
aF2.3444304466247559
aF2.3441324234008789
aF2.3438196182250977
aF2.3435184955596924
aF2.343195915222168
aF2.342900276184082
aF2.3425993919372559
aF2.3422751426696777
aF2.3419597148895264
aF2.3416240215301514
aF2.3412644863128662
aF2.3408479690551758
aF2.3404150009155273
aF2.3399806022644043
aF2.339545726776123
aF2.3391149044036865
aF2.3386876583099365
aF2.3382604122161865
aF2.3378362655639648
aF2.3374700546264648
aF2.3371293544769287
aF2.3367955684661865
aF2.3364899158477783
aF2.3361997604370117
aF2.3359100818634033
aF2.3356256484985352
aF2.3353409767150879
aF2.3350515365600586
aF2.3347609043121338
aF2.3344738483428955
aF2.3341844081878662
aF2.3338930606842041
aF2.3336038589477539
aF2.3333110809326172
aF2.3330132961273193
aF2.3327162265777588
aF2.3324167728424072
aF2.3321282863616943
aF2.3318655490875244
aF2.3316097259521484
aF2.3313779830932617
aF2.3311765193939209
aF2.3310115337371826
aF2.3308775424957275
aF2.3307726383209229
aF2.3306729793548584
aF2.3305699825286865
aF2.3304657936096191
aF2.3303568363189697
aF2.3302397727966309
aF2.3301148414611816
aF2.3299868106842041
aF2.3298723697662354
aF2.3297591209411621
aF2.3296434879302979
aF2.3294570446014404
aF2.329242467880249
aF2.3290891647338867
aF2.3289353847503662
aF2.3287460803985596
aF2.3284990787506104
aF2.3282201290130615
aF2.3279259204864502
aF2.3276197910308838
aF2.3273165225982666
aF2.3270149230957031
aF2.3267054557800293
aF2.3263916969299316
aF2.3260757923126221
aF2.3257646560668945
aF2.3254525661468506
aF2.3251388072967529
aF2.3248217105865479
aF2.3245012760162354
aF2.3241817951202393
aF2.3238584995269775
aF2.323528528213501
aF2.3231961727142334
aF2.3228576183319092
aF2.322514533996582
aF2.3221728801727295
aF2.3218257427215576
aF2.3214743137359619
aF2.3211157321929932
aF2.3207581043243408
aF2.3203980922698975
aF2.3200316429138184
aF2.3196628093719482
aF2.3192903995513916
aF2.3189113140106201
aF2.3185856342315674
aF2.3182342052459717
aF2.3177993297576904
aF2.3174121379852295
aF2.3170566558837891
aF2.3166365623474121
aF2.3163509368896484
aF2.3159637451171875
aF2.3154828548431396
aF2.3148894309997559
aF2.3142576217651367
aF2.3136138916015625
aF2.3129727840423584
aF2.312422513961792
aF2.3119275569915771
aF2.3115067481994629
aF2.3111231327056885
aF2.3106894493103027
aF2.3102140426635742
aF2.309786319732666
aF2.309333324432373
aF2.3089063167572021
aF2.3084466457366943
aF2.3080451488494873
aF2.3076541423797607
aF2.3072428703308105
aF2.3068878650665283
aF2.3065071105957031
aF2.30609130859375
aF2.3057065010070801
aF2.3053944110870361
aF2.3050134181976318
aF2.3045918941497803
aF2.3041980266571045
aF2.3038344383239746
aF2.3033668994903564
aF2.3029956817626953
aF2.302666187286377
aF2.3024325370788574
aF2.3021855354309082
aF2.3018631935119629
aF2.301530122756958
aF2.301213264465332
aF2.3009696006774902
aF2.3006184101104736
aF2.3001923561096191
aF2.2999041080474854
aF2.299560546875
aF2.2991998195648193
aF2.2989120483398438
aF2.2986023426055908
aF2.298283576965332
aF2.2979536056518555
aF2.2976200580596924
aF2.2972791194915771
aF2.2969377040863037
aF2.296623706817627
aF2.2963306903839111
aF2.2959926128387451
aF2.2955374717712402
aF2.2950191497802734
aF2.294605016708374
aF2.294297456741333
aF2.293989896774292
aF2.2936856746673584
aF2.2934279441833496
aF2.2931818962097168
aF2.2927954196929932
aF2.2923421859741211
aF2.2920746803283691
aF2.2917232513427734
aF2.2912931442260742
aF2.2909584045410156
aF2.2906672954559326
aF2.2902204990386963
aF2.2899260520935059
aF2.2896087169647217
aF2.2893385887145996
aF2.2891032695770264
aF2.2888011932373047
aF2.2885622978210449
aF2.2882721424102783
aF2.28806471824646
aF2.2877576351165771
aF2.2874722480773926
aF2.2873094081878662
aF2.2871019840240479
aF2.2871065139770508
aF2.2871816158294678
aF2.2872114181518555
aF2.2871334552764893
aF2.2868480682373047
aF2.286754846572876
aF2.2866208553314209
aF2.2865335941314697
aF2.2864878177642822
aF2.286412239074707
aF2.2863531112670898
aF2.2860815525054932
aF2.285728931427002
aF2.2856135368347168
aF2.2855427265167236
aF2.2853741645812988
aF2.2849688529968262
aF2.284515380859375
aF2.2842936515808105
aF2.2839860916137695
aF2.2835981845855713
aF2.2830593585968018
aF2.2825486660003662
aF2.2821948528289795
aF2.2818090915679932
aF2.2815108299255371
aF2.2811939716339111
aF2.2807896137237549
aF2.2805240154266357
aF2.2802631855010986
aF2.2799830436706543
aF2.2797482013702393
aF2.2793748378753662
aF2.2790548801422119
aF2.2788412570953369
aF2.2785584926605225
aF2.2782700061798096
aF2.2779924869537354
aF2.2778069972991943
aF2.2774844169616699
aF2.277174711227417
aF2.2770256996154785
aF2.2769091129302979
aF2.2767977714538574
aF2.2765774726867676
aF2.2762346267700195
aF2.2757976055145264
aF2.2752926349639893
aF2.2747807502746582
aF2.2745060920715332
aF2.2741632461547852
aF2.2737970352172852
aF2.2736163139343262
aF2.2737481594085693
aF2.2737667560577393
aF2.273716926574707
aF2.2737915515899658
aF2.273892879486084
aF2.2739818096160889
aF2.2739412784576416
aF2.27388596534729
aF2.2738919258117676
aF2.2739026546478271
aF2.2738957405090332
aF2.2738687992095947
aF2.27390456199646
aF2.2739737033843994
aF2.2740402221679688
aF2.2740142345428467
aF2.2738170623779297
aF2.2737421989440918
aF2.2737748622894287
aF2.2737491130828857
aF2.2736344337463379
aF2.2736160755157471
aF2.2736141681671143
aF2.273493766784668
aF2.2733259201049805
aF2.2732467651367188
aF2.2731814384460449
aF2.272942066192627
aF2.2726945877075195
aF2.2725598812103271
aF2.2724514007568359
aF2.2723453044891357
aF2.2721114158630371
aF2.2719523906707764
aF2.2718112468719482
aF2.2715439796447754
aF2.2713582515716553
aF2.2711913585662842
aF2.2710201740264893
aF2.2708466053009033
aF2.2705342769622803
aF2.2703104019165039
aF2.27010178565979
aF2.2698884010314941
aF2.2696774005889893
aF2.2696406841278076
aF2.2695209980010986
aF2.2694876194000244
aF2.2693471908569336
aF2.2692911624908447
aF2.2691190242767334
aF2.269024133682251
aF2.2690074443817139
aF2.2688028812408447
aF2.2686662673950195
aF2.2686026096343994
aF2.2683529853820801
aF2.268162727355957
aF2.2680466175079346
aF2.2679405212402344
aF2.2678318023681641
aF2.2674963474273682
aF2.2672324180603027
aF2.2670419216156006
aF2.2668726444244385
aF2.2666926383972168
aF2.2665116786956787
aF2.266308069229126
aF2.2660939693450928
aF2.2658641338348389
aF2.2656280994415283
aF2.265376091003418
aF2.2651138305664062
aF2.2648351192474365
aF2.2645494937896729
aF2.2642550468444824
aF2.263960599899292
aF2.2636623382568359
aF2.263350248336792
aF2.2630243301391602
aF2.2627010345458984
aF2.2623732089996338
aF2.2620413303375244
aF2.2617013454437256
aF2.2613561153411865
aF2.2610166072845459
aF2.2606780529022217
aF2.2603235244750977
aF2.2599611282348633
aF2.2595975399017334
aF2.2592432498931885
aF2.2591361999511719
aF2.2589452266693115
aF2.258610725402832
aF2.2582190036773682
aF2.2580642700195312
aF2.2578332424163818
aF2.2574520111083984
aF2.2572879791259766
aF2.2570376396179199
aF2.2568857669830322
aF2.2570161819458008
aF2.2572238445281982
aF2.2574279308319092
aF2.2574069499969482
aF2.2572588920593262
aF2.2568440437316895
aF2.256389856338501
aF2.2559385299682617
aF2.2554292678833008
aF2.2551493644714355
aF2.2550234794616699
aF2.2547602653503418
aF2.2549030780792236
aF2.2547519207000732
aF2.2547273635864258
aF2.2547938823699951
aF2.2545452117919922
aF2.2544393539428711
aF2.2541868686676025
aF2.2536790370941162
aF2.2535443305969238
aF2.2529928684234619
aF2.2525849342346191
aF2.2524468898773193
aF2.2520489692687988
aF2.2515368461608887
aF2.2509634494781494
aF2.2508656978607178
aF2.2505838871002197
aF2.2503457069396973
aF2.2497344017028809
aF2.2493164539337158
aF2.249049186706543
aF2.2486739158630371
aF2.2484674453735352
aF2.247704029083252
aF2.2474105358123779
aF2.2473869323730469
aF2.2476394176483154
aF2.2475030422210693
aF2.2472426891326904
aF2.2472987174987793
aF2.2475452423095703
aF2.2475173473358154
aF2.2471628189086914
aF2.2472472190856934
aF2.247187614440918
aF2.2471740245819092
aF2.2470684051513672
aF2.2468669414520264
aF2.2468037605285645
aF2.2466738224029541
aF2.2464523315429688
aF2.2463665008544922
aF2.2462224960327148
aF2.2459781169891357
aF2.2458851337432861
aF2.2457292079925537
aF2.2454662322998047
aF2.2453563213348389
aF2.2451705932617188
aF2.244891881942749
aF2.2449617385864258
aF2.2446277141571045
aF2.2442834377288818
aF2.2443327903747559
aF2.244187593460083
aF2.2436869144439697
aF2.2436864376068115
aF2.2435088157653809
aF2.2432019710540771
aF2.2430541515350342
aF2.2428319454193115
aF2.2425074577331543
aF2.2425546646118164
aF2.2423779964447021
aF2.241844654083252
aF2.2418391704559326
aF2.2416388988494873
aF2.2414309978485107
aF2.2416791915893555
aF2.2417066097259521
aF2.2417421340942383
aF2.242164134979248
aF2.2418627738952637
aF2.2416274547576904
aF2.2419359683990479
aF2.2417275905609131
aF2.2411761283874512
aF2.2412729263305664
aF2.241004467010498
aF2.2407281398773193
aF2.2409822940826416
aF2.2408082485198975
aF2.2403721809387207
aF2.240487813949585
aF2.2401769161224365
aF2.2393460273742676
aF2.2395777702331543
aF2.2399089336395264
aF2.2395339012145996
aF2.2394020557403564
aF2.2395398616790771
aF2.2391073703765869
aF2.2396633625030518
aF2.2393238544464111
aF2.2387447357177734
aF2.2391016483306885
aF2.2389447689056396
aF2.2382509708404541
aF2.2382292747497559
aF2.2382376194000244
aF2.2377684116363525
aF2.2376246452331543
aF2.2373275756835938
aF2.2371366024017334
aF2.2372603416442871
aF2.2367146015167236
aF2.2364885807037354
aF2.2369270324707031
aF2.2367644309997559
aF2.2360186576843262
aF2.2363107204437256
aF2.2364382743835449
aF2.2360291481018066
aF2.2361049652099609
aF2.2361164093017578
aF2.2359633445739746
aF2.2366867065429688
aF2.2364084720611572
aF2.2365424633026123
aF2.2367703914642334
aF2.236492395401001
aF2.2365508079528809
aF2.2361814975738525
aF2.2356455326080322
aF2.2357444763183594
aF2.23537278175354
aF2.235130786895752
aF2.2353079319000244
aF2.2349438667297363
aF2.235468864440918
aF2.2352566719055176
aF2.2346897125244141
aF2.2339932918548584
aF2.2341172695159912
aF2.234062671661377
aF2.233651876449585
aF2.2341012954711914
aF2.2337555885314941
aF2.2330493927001953
aF2.2333929538726807
aF2.2334306240081787
aF2.2329199314117432
aF2.2321591377258301
aF2.2321150302886963
aF2.2320148944854736
aF2.2314472198486328
aF2.2310991287231445
aF2.2316617965698242
aF2.2313969135284424
aF2.2310342788696289
aF2.2308108806610107
aF2.2308900356292725
aF2.2307522296905518
aF2.2300679683685303
aF2.2295799255371094
aF2.2293436527252197
aF2.2299158573150635
aF2.2295727729797363
aF2.2291033267974854
aF2.2287850379943848
aF2.2280595302581787
aF2.2283217906951904
aF2.2283778190612793
aF2.2276883125305176
aF2.2271602153778076
aF2.2268667221069336
aF2.2269265651702881
aF2.2267537117004395
aF2.2264893054962158
aF2.2257215976715088
aF2.2252025604248047
aF2.2249529361724854
aF2.2250783443450928
aF2.2249422073364258
aF2.2241895198822021
aF2.2236661911010742
aF2.2234294414520264
aF2.2227709293365479
aF2.2232034206390381
aF2.2228391170501709
aF2.2224240303039551
aF2.2221930027008057
aF2.2220337390899658
aF2.2213351726531982
aF2.2208988666534424
aF2.2223207950592041
aF2.2222309112548828
aF2.2217206954956055
aF2.2212839126586914
aF2.2209150791168213
aF2.2207274436950684
aF2.220555305480957
aF2.2204039096832275
aF2.2203748226165771
aF2.2193527221679688
aF2.2197103500366211
aF2.2198834419250488
aF2.219092845916748
aF2.2186496257781982
aF2.2184062004089355
aF2.2192630767822266
aF2.2186636924743652
as.